0001   0000             				;; $0006-0007		= Table pointer
0002   0000             				;; $000e-000f		= Screen loc pointer
0003   0000             				;; $0014-0015		= String loc pointer
0004   0000             
0005   0000             				;; $001a				= SPRVAL
0006   0000             				;; $001c				= SPR1H
0007   0000             				;; $001d				= SPR1V
0008   0000             				;; $0022				= SPR2H
0009   0000             				;; $0023				= SPR2V
0010   0000             
0011   0000             				;; $006c				= ??
0012   0000             				;; $0076				= Current player level?
0013   0000             				;; $00a0				= Half credits
0014   0000             				;; $00a1				= Credits (goes to coinage screen immediately)
0015   0000             				;; $00ae				= Audio1 store?
0016   0000             				;; $00a7				= Status D7 = Game
0017   0000             				;; $00ab				= ??
0018   0000             				;; $00ae				= ??
0019   0000             				;; $00af				= ??
0020   0000             
0021   0000             				;; $00bd-00be		= Current player score
0022   0000             				;; $00bf				= current player
0023   0000             
0024   0000             				;; $00e0-00ff		= Not used?
0025   0000             
0026   0000             L0100		= $0100									; ??
0027   0000             L0101		= $0101									; ??
0028   0000             L0102		=	$0102									; Attract mode cycle (1-9)?
0029   0000             				
0030   0000             L0110		= $0110									; (5 bytes) BCD string buffer
0031   0000             L0111		= $0111									; ??
0032   0000             L0141		= $0141									; ??
0033   0000             				
0034   0000             L0200		= $0200									; ??
0035   0000             L0202		= $0202									; ??
0036   0000             L0208		=	$0208									; ??
0037   0000             				
0038   0000             L0252		= $0252									; ??
0039   0000             L0254		= $0254									; ??
0040   0000             L0256		= $0256									; ??
0041   0000             L0257		= $0257									; ??
0042   0000             L025c		= $025c									; ??
0043   0000             L025b		= $025b									; ??
0044   0000             L0262		= $0262									; ??
0045   0000             L0264		= $0264									;	??
0046   0000             L0266		= $0266									; ??
0047   0000             L0267		= $0267									; ??
0048   0000             
0049   0000             L0303		= $0303									; ??
0050   0000             L0316		= $0316									; ??
0051   0000             L0317		= $0317									; ??
0052   0000             L0330		= $0330									; ??
0053   0000             L0350		= $0350									; ??
0054   0000             L0352		= $0352									; ??
0055   0000             
0056   0000             L033f		= $033f									; ??
0057   0000             L0351		= $0351									; ??
0058   0000             L03e0		= $03e0									; ??
0059   0000             L03e1		= $03e1									; ??
0060   0000             L03ef		= $03ef									; ??
0061   0000             L03e8		= $03e8									; ??
0062   0000             L03f0		= $03f0									; ??
0063   0000             L03f8		= $03f8									; ??
0064   0000             
0065   0000             
0066   0000             				.org		$0000
0067   0000 FF          				.db			$ff
0068   0001             
0069   1000             				.org		$1000
0070   1000             LRESET:
0071   1000             L1000:
0072   1000 78          				sei													; Disable interrupts
0073   1001 A2 FF       				ldx			#$ff
0074   1003 9A          				txs													; Set stack pointer
0075   1004             L1004:
0076   1004 AD 03 51    				lda			$5103								; Interrupt condition
0077   1007 CA          				dex
0078   1008 30 FA       				bmi			L1004								; Loop
0079   100A             
0080   100A D8          				cld
0081   100B A9 00       				lda			#$00
0082   100D 85 A0       				sta			$a0									; Half coins
0083   100F 85 A1       				sta			$a1									; Credits
0084   1011             L1011:
0085   1011 85 A7       				sta			$a7
0086   1013             
0087   1013             				;; Write interupt vector
0088   1013 A2 00       				ldx			#$00
0089   1015 BD A9 3F    				lda			L3fa9, x
0090   1018 8D FE FF    				sta			$fffe
0091   101B E8          				inx
0092   101C BD A9 3F    				lda			L3fa9, x
0093   101F 8D FF FF    				sta			$ffff
0094   1022             
0095   1022 A9 10       				lda			#$10
0096   1024 8D 00 52    				sta			$5200								; Audio1
0097   1027 58          				cli													; Enable interrupts
0098   1028 20 53 24    				jsr			L2453								; Write characte ram and ??
0099   102B 20 0C 11    				jsr			L110c								; Startup screen and delay
0100   102E             				
0101   102E A9 00       				lda			#$00
0102   1030 8D 02 01    				sta			$0102
0103   1033 85 AB       				sta			$ab
0104   1035 85 6C       				sta			$6c
0105   1037 85 BD       				sta			$bd
0106   1039 85 BE       				sta			$be
0107   103B 85 AE       				sta			$ae
0108   103D 8D 5B 02    				sta			$025b
0109   1040 A9 FF       				lda			#$ff
0110   1042 8D 01 52    				sta			$5201								; Audio2
0111   1045 85 6C       				sta			$6c
0112   1047 8D 52 02    				sta			$0252
0113   104A 8D 62 02    				sta			$0262
0114   104D A9 10       				lda			#$10
0115   104F 85 AF       				sta			$af
0116   1051 20 F6 29    				jsr			L29f6								; Init P1 values (?)
0117   1054 20 FB 29    				jsr			L29fb								; Init P2 values (?)
0118   1057 4C 7E 15    				jmp			L157e
0119   105A             
0120   105A             L105a:
0121   105A 78          				sei													; Disable interrupts
0122   105B A2 FF       				ldx			#$ff
0123   105D 9A          				txs													; Set stack pointer
0124   105E 58          				cli
0125   105F 20 53 24    				jsr			L2453								; Write characte ram and ??
0126   1062             
0127   1062 A9 00       				lda			#$00
0128   1064 85 BD       				sta			$bd
0129   1066 85 BE       				sta			$be
0130   1068 85 DC       				sta			$dc
0131   106A 85 DD       				sta			$dd
0132   106C 85 1B       				sta			$1b
0133   106E 85 2F       				sta			$2f
0134   1070 85 76       				sta			$76
0135   1072 A9 01       				lda			#$01
0136   1074 85 BF       				sta			$bf
0137   1076 85 C3       				sta			$c3
0138   1078 A9 24       				lda			#$24
0139   107A 85 74       				sta			$74
0140   107C 20 71 2D    				jsr			L2d71
0141   107F A9 0A       				lda			#$0a
0142   1081 85 B1       				sta			$b1
0143   1083 20 F6 29    				jsr			L29f6								; Init P1 values (?)
0144   1086 20 FB 29    				jsr			L29fb								; Init P2 values (?)
0145   1089 20 A5 14    				jsr			L14a5
0146   108C 20 8B 25    				jsr			L258b
0147   108F             L108f:
0148   108F 20 82 11    				jsr			L1182
0149   1092 20 CD 11    				jsr			L11cd
0150   1095             L1095:
0151   1095 20 C4 10    				jsr			L10c4
0152   1098 20 70 24    				jsr			L2470
0153   109B 20 CE 13    				jsr			L13ce
0154   109E 20 5A 21    				jsr			L215a
0155   10A1 20 0F 26    				jsr			L260f
0156   10A4 A5 74       				lda			$74
0157   10A6 D0 03       				bne			L10ab
0158   10A8 4C 38 12    				jmp			L1238
0159   10AB             L10ab:
0160   10AB A5 3E       				lda			$3e
0161   10AD 29 10       				and			#$10
0162   10AF F0 07       				beq			L10b8
0163   10B1 A5 2F       				lda			$2f
0164   10B3 D0 03       				bne			L10b8
0165   10B5 4C 38 12    				jmp			L1238
0166   10B8             L10b8:
0167   10B8 A5 30       				lda			$30
0168   10BA 29 02       				and			#$02
0169   10BC F0 D7       				beq			L1095
0170   10BE 20 2F 13    				jsr			L132f
0171   10C1 4C 8F 10    				jmp			L108f
0172   10C4             L10c4:
0173   10C4 20 70 1D    				jsr			L1d70
0174   10C7 20 92 1C    				jsr			L1c92
0175   10CA 20 A7 1D    				jsr			L1da7
0176   10CD 20 E9 1F    				jsr			L1fe9
0177   10D0 20 02 1E    				jsr			L1e02
0178   10D3 20 CC 20    				jsr			L20cc
0179   10D6 20 DD 10    				jsr			L10dd
0180   10D9 20 49 26    				jsr			L2649
0181   10DC 60          				rts
0182   10DD             
0183   10DD             L10dd:
0184   10DD A5 31       				lda			$31
0185   10DF D0 01       				bne			L10e2
0186   10E1             
0187   10E1 60          				rts
0188   10E2             
0189   10E2             L10e2:
0190   10E2 20 47 1E    				jsr			L1e47
0191   10E5 A0 00       				ldy			#$00
0192   10E7 B1 66       				lda			($66), y
0193   10E9 C9 E8       				cmp			#$e8
0194   10EB F0 04       				beq			L10f1
0195   10ED C9 20       				cmp			#$20
0196   10EF D0 03       				bne			L10f4
0197   10F1             L10f1:
0198   10F1 4C B2 1E    				jmp			L1eb2
0199   10F4             L10f4:
0200   10F4 20 DB 1F    				jsr			L1fdb
0201   10F7 B0 10       				bcs			L1109
0202   10F9 A5 2A       				lda			$2a
0203   10FB C5 66       				cmp			$66
0204   10FD D0 06       				bne			L1105
0205   10FF A5 2B       				lda			$2b
0206   1101             L1101:
0207   1101 C5 67       				cmp			$67
0208   1103 F0 04       				beq			L1109
0209   1105             L1105:
0210   1105 A9 21       				lda			#$21
0211   1107 91 66       				sta			($66), y
0212   1109             L1109:
0213   1109 4C CA 1F    				jmp			L1fca
0214   110C             
0215   110C             				;; Startup screen
0216   110C             L110c:
0217   110C 20 25 2E    				jsr			L2e25										; Clear screen
0218   110F A2 12       				ldx			#$12										; Length
0219   1111             L1111:
0220   1111 BD 39 11    				lda			L1139, x								; String loc
0221   1114 9D 44 40    				sta			$4044, x								; Screen loc
0222   1117 CA          				dex
0223   1118 10 F7       				bpl			L1111										; Loop
0224   111A             
0225   111A A2 15       				ldx			#$15										; Length
0226   111C             L111c:
0227   111C BD 4D 11    				lda			L114d, x								; String loc
0228   111F 9D 84 40    				sta			$4084, x								; Screen loc
0229   1122 CA          				dex
0230   1123 10 F7       				bpl			L111c										; Loop
0231   1125             
0232   1125 A9 80       				lda			#$80
0233   1127 8D 44 4F    				sta			$4f44
0234   112A 20 50 2D    				jsr			L2d50										; Delay
0235   112D             
0236   112D             				;; Easter egg
0237   112D A2 1E       				ldx			#$1e										; Length
0238   112F             L112f:
0239   112F BD 63 11    				lda			L1163, x								; String loc
0240   1132 9D 04 41    				sta			$4104, x								; Screen loc
0241   1135 CA          				dex
0242   1136 10 F7       				bpl			L112f										; Loop
0243   1138 60          				rts
0244   1139             
0245   1139             L1139:
0246   1139 53 50 45 43 				.db			"SPECTAR  VER  2 ",$e8,"0  "
0246   113D 54 41 52 20 
0246   1141 20 56 45 52 
0246   1145 20 20 32 20 
0246   1149 E8 30 20 20 
0247   114D             
0248   114D             L114d:
0249   114D 52 45 4C 45 				.db			"RELEASED MAR  2 1981  "
0249   1151 41 53 45 44 
0249   1155 20 4D 41 52 
0249   1159 20 20 32 20 
0249   115D 31 39 38 31 
0249   1161 20 20 
0250   1163             
0251   1163             L1163:
0252   1163 50 52 4F 47 				.db			"PROGRAMMED BY MANUEL J CAMPOS  "
0252   1167 52 41 4D 4D 
0252   116B 45 44 20 42 
0252   116F 59 20 4D 41 
0252   1173 4E 55 45 4C 
0252   1177 20 4A 20 43 
0252   117B 41 4D 50 4F 
0252   117F 53 20 20 
0253   1182             
0254   1182             L1182:
0255   1182 A4 C3       				ldy			$C3
0256   1184 D0 02       				bne			L1188
0257   1186 A0 01       				ldy			#$01
0258   1188             L1188:
0259   1188 88          				dey
0260   1189 98          				tya
0261   118A 0A          				asl			a
0262   118B A8          				tay
0263   118C 20 78 2E    				jsr			L2e78
0264   118F             
0265   118F A9 4B       				lda			#$4b
0266   1191 85 43       				sta			$43
0267   1193 A0 16       				ldy			#$16
0268   1195 20 7C 2E    				jsr			L2e7c
0269   1198 A9 4C       				lda			#$4c
0270   119A 85 43       				sta			$43
0271   119C A0 12       				ldy			#$12
0272   119E 20 7C 2E    				jsr			L2e7c
0273   11A1 A9 4E       				lda			#$4e
0274   11A3 85 43       				sta			$43
0275   11A5 A0 14       				ldy			#$14
0276   11A7 20 7C 2E    				jsr			L2e7c
0277   11AA             
0278   11AA             				;; Copy custom per-level maze chars
0279   11AA A5 76       				lda			$76									; Current level?
0280   11AC 29 0F       				and			#$0f
0281   11AE 0A          				asl			a										; a*2
0282   11AF AA          				tax
0283   11B0             
0284   11B0             				;; Copy table address to ($0e-0f)
0285   11B0 BD 89 3F    				lda			L3f89, x							
0286   11B3 85 0E       				sta			$0e
0287   11B5 E8          				inx
0288   11B6 BD 89 3F    				lda			L3f89, x
0289   11B9 85 0F       				sta			$0f
0290   11BB             
0291   11BB A0 1F       				ldy			#$1f									; Loop counter
0292   11BD             L11bd:
0293   11BD B1 0E       				lda			($0e), y
0294   11BF 99 D0 4D    				sta			$4dd0, y							; Chars $ba-bd
0295   11C2 88          				dey
0296   11C3 10 F8       				bpl			L11bd								; Loop
0297   11C5             
0298   11C5 24 A7       				bit			$a7									; Status
0299   11C7 10 03       				bpl			L11cc								; In attract
0300   11C9 20 B0 13    				jsr			L13b0
0301   11CC             L11cc:
0302   11CC 60          				rts
0303   11CD             
0304   11CD             L11cd:
0305   11CD A9 41       				lda			#$41
0306   11CF 85 0F       				sta			$0f
0307   11D1 A9 28       				lda			#$28
0308   11D3 85 0E       				sta			$0e
0309   11D5 A9 00       				lda			#$00
0310   11D7 85 48       				sta			$48
0311   11D9 A5 A7       				lda			$a7
0312   11DB 29 04       				and			#$04
0313   11DD F0 0F       				beq			L11ee
0314   11DF A9 24       				lda			#$24
0315   11E1 38          				sec
0316   11E2 E5 74       				sbc			$74
0317   11E4 85 48       				sta			$48
0318   11E6 A9 40       				lda			#$40
0319   11E8 85 0F       				sta			$0f
0320   11EA A9 E8       				lda			#$e8
0321   11EC 85 0E       				sta			$0e
0322   11EE             L11ee:
0323   11EE A5 74       				lda			$74
0324   11F0 85 87       				sta			$87
0325   11F2 C6 87       				dec			$87
0326   11F4 A9 00       				lda			#$00
0327   11F6 85 74       				sta			$74
0328   11F8 85 72       				sta			$72
0329   11FA 85 70       				sta			$70
0330   11FC 85 73       				sta			$73
0331   11FE A9 06       				lda			#$06
0332   1200 85 86       				sta			$86
0333   1202             L1202:
0334   1202 20 17 12    				jsr			L1217
0335   1205 A5 0E       				lda			$0e
0336   1207 18          				clc
0337   1208 69 60       				adc			#$60
0338   120A 85 0E       				sta			$0e
0339   120C A9 00       				lda			#$00
0340   120E 65 0F       				adc			$0f
0341   1210 85 0F       				sta			$0f
0342   1212 C6 86       				dec			$86
0343   1214             L1214:
0344   1214 D0 EC       				bne			L1202
0345   1216 60          				rts
0346   1217             L1217:
0347   1217 A0 00       				ldy			#$00
0348   1219 A2 06       				ldx			#$06
0349   121B             L121b:
0350   121B B1 0E       				lda			($0e), y
0351   121D C9 20       				cmp			#$20
0352   121F D0 10       				bne			L1231
0353   1221 C6 48       				dec			$48
0354   1223 10 0C       				bpl			L1231
0355   1225 24 87       				bit			$87
0356   1227 30 08       				bmi			L1231
0357   1229 A9 E8       				lda			#$e8
0358   122B 91 0E       				sta			($0e), y
0359   122D C6 87       				dec			$87
0360   122F E6 74       				inc			$74
0361   1231             L1231:
0362   1231 C8          				iny
0363   1232 C8          				iny
0364   1233 C8          				iny
0365   1234 CA          				dex
0366   1235 D0 E4       				bne			L121b
0367   1237 60          				rts
0368   1238             L1238:
0369   1238 A9 F0       				lda			#$f0
0370   123A 05 1A       				ora			$1a
0371   123C 85 1A       				sta			$1a
0372   123E 20 59 2D    				jsr			L2d59
0373   1241 A9 10       				lda			#$10
0374   1243 8D 00 52    				sta			$5200								; Audio1
0375   1246 A6 BF       				ldx			$bf
0376   1248 CA          				dex
0377   1249 20 FD 29    				jsr			L29fd
0378   124C A9 EE       				lda			#$ee
0379   124E 85 1A       				sta			$1a
0380   1250 20 89 23    				jsr			L2389
0381   1253 E6 76       				inc			$76
0382   1255 A9 24       				lda			#$24
0383   1257 85 74       				sta			$74
0384   1259 20 8B 25    				jsr			L258b
0385   125C A0 00       				ldy			#$00
0386   125E A5 BF       				lda			$bf
0387   1260 C9 01       				cmp			#$01
0388   1262 F0 02       				beq			L1266
0389   1264 A0 02       				ldy			#$02
0390   1266             L1266:
0391   1266 A9 00       				lda			#$00
0392   1268 20 7E 22    				jsr			L227e
0393   126B C6 28       				dec			$28
0394   126D 10 04       				bpl			L1273
0395   126F A9 00       				lda			#$00
0396   1271 85 28       				sta			$28
0397   1273             L1273:
0398   1273 A9 00       				lda			#$00
0399   1275 85 3E       				sta			$3e
0400   1277 A9 0A       				lda			#$0a
0401   1279 85 B1       				sta			$b1
0402   127B 4C 8F 10    				jmp			L108f
0403   127E             L127e:
0404   127E A9 10       				lda			#$10
0405   1280 8D 00 52    				sta			$5200								; Audio1
0406   1283 A9 EE       				lda			#$ee
0407   1285 85 1A       				sta			$1a
0408   1287 20 59 2D    				jsr			L2d59
0409   128A A5 A7       				lda			$a7
0410   128C 29 03       				and			#$03
0411   128E D0 0F       				bne			L129f
0412   1290             L1290:
0413   1290 A5 A7       				lda			$a7
0414   1292 29 FB       				and			#$fb
0415   1294 85 A7       				sta			$a7
0416   1296 20 53 24    				jsr			L2453								; Write characte ram and ??
0417   1299 20 A6 2B    				jsr			L2ba6
0418   129C 4C 7E 15    				jmp			L157e
0419   129F             L129f:
0420   129F AD 00 51    				lda			$5100
0421   12A2 49 FF       				eor			#$ff
0422   12A4 29 04       				and			#$04
0423   12A6 D0 5F       				bne			L1307
0424   12A8 24 A7       				bit			$a7
0425   12AA 70 E4       				bvs			L1290
0426   12AC 20 25 2E    				jsr			L2e25										; Clear screen
0427   12AF A5 A7       				lda			$a7
0428   12B1 29 03       				and			#$03
0429   12B3 85 BF       				sta			$bf
0430   12B5 F0 D9       				beq			L1290
0431   12B7 A5 BF       				lda			$bf
0432   12B9 29 02       				and			#$02
0433   12BB 0A          				asl			a
0434   12BC 29 04       				and			#$04
0435   12BE 85 00       				sta			$00
0436   12C0 A5 A7       				lda			$a7
0437   12C2 29 FB       				and			#$fb
0438   12C4 05 00       				ora			$00
0439   12C6 85 A7       				sta			$a7
0440   12C8 20 60 24    				jsr			L2460
0441   12CB 20 53 24    				jsr			L2453										; Write characte ram and ??
0442   12CE A0 00       				ldy			#$00
0443   12D0 A9 12       				lda			#$12										; EXTENDED PLAY FOR PLAYER _
0444   12D2 20 00 2B    				jsr			L2b00										; Draw language string a
0445   12D5 A9 13       				lda			#$13										; TOPPING HIGH SCORE
0446   12D7 20 00 2B    				jsr			L2b00										; Draw language string a
0447   12DA A5 A7       				lda			$a7
0448   12DC 29 04       				and			#$04
0449   12DE F0 0A       				beq			L12ea
0450   12E0 A5 BF       				lda			$bf
0451   12E2 09 30       				ora			#$30
0452   12E4 8D E2 41    				sta			$41e2
0453   12E7 4C F1 12    				jmp			L12f1
0454   12EA             L12ea:
0455   12EA A5 BF       				lda			$bf
0456   12EC 09 30       				ora			#$30
0457   12EE 8D 1D 42    				sta			$421d
0458   12F1             L12f1:
0459   12F1 20 53 2D    				jsr			L2d53
0460   12F4 20 53 2D    				jsr			L2d53
0461   12F7 A5 A7       				lda			$a7
0462   12F9 09 40       				ora			#$40
0463   12FB 85 A7       				sta			$a7
0464   12FD A5 BF       				lda			$bf
0465   12FF 4A          				lsr			a
0466   1300 AA          				tax
0467   1301 20 D5 29    				jsr			L29d5
0468   1304 4C 38 12    				jmp			L1238
0469   1307             L1307:
0470   1307 20 25 2E    				jsr			L2e25										; Clear screen
0471   130A 20 AD 26    				jsr			L26ad
0472   130D             
0473   130D             				;; Add bonus credit?
0474   130D F8          				sed
0475   130E 18          				clc
0476   130F A5 A1       				lda			$a1											; Credits
0477   1311 69 01       				adc			#$01
0478   1313 85 A1       				sta			$a1											; Credits
0479   1315             L1315:
0480   1315 D8          				cld
0481   1316             
0482   1316 A9 14       				lda			#$14										; EXTRA CREDIT
0483   1318 20 00 2B    				jsr			L2b00										; Draw language string a
0484   131B A9 15       				lda			#$15										; FOR TOPPING HIGH SCORE
0485   131D 20 00 2B    				jsr			L2b00										; Draw language string a
0486   1320 20 53 2D    				jsr			L2d53
0487   1323 20 AD 26    				jsr			L26ad
0488   1326 20 EF 27    				jsr			L27ef
0489   1329 20 53 2D    				jsr			L2d53
0490   132C 4C 90 12    				jmp			L1290
0491   132F             L132f:
0492   132F A9 10       				lda			#$10
0493   1331 20 69 22    				jsr			L2269
0494   1334 A9 FF       				lda			#$ff
0495   1336 85 65       				sta			$65
0496   1338 A9 EE       				lda			#$ee
0497   133A 85 1A       				sta			$1a
0498   133C 20 D2 2B    				jsr			L2bd2
0499   133F A5 2F       				lda			$2f
0500   1341 85 B1       				sta			$b1
0501   1343 A5 3E       				lda			$3e
0502   1345 29 10       				and			#$10
0503   1347 D0 08       				bne			L1351
0504   1349 A5 80       				lda			$80
0505   134B 0A          				asl			a
0506   134C 18          				clc
0507   134D 65 2F       				adc			$2f
0508   134F 85 B1       				sta			$b1
0509   1351             L1351:
0510   1351 A5 C0       				lda			$c0
0511   1353 C9 02       				cmp			#$02
0512   1355 D0 30       				bne			L1387
0513   1357 A5 BF       				lda			$bf
0514   1359 C9 01       				cmp			#$01
0515   135B F0 14       				beq			L1371
0516   135D A9 01       				lda			#$01
0517   135F 85 BF       				sta			$bf
0518   1361 A5 A7       				lda			$a7
0519   1363 29 FB       				and			#$fb
0520   1365 85 A7       				sta			$a7
0521   1367 20 FB 29    				jsr			L29fb								; Init P2 values (?)
0522   136A 20 CE 29    				jsr			L29ce
0523   136D A5 C1       				lda			$c1
0524   136F D0 1D       				bne			L138e
0525   1371             L1371:
0526   1371 A9 02       				lda			#$02
0527   1373 85 BF       				sta			$bf
0528   1375 A5 A7       				lda			$a7
0529   1377 09 04       				ora			#$04
0530   1379 85 A7       				sta			$a7
0531   137B 20 60 24    				jsr			L2460
0532   137E 20 F6 29    				jsr			L29f6								; Init P1 values (?)
0533   1381 20 D3 29    				jsr			L29d3
0534   1384 4C 8A 13    				jmp			L138a
0535   1387             L1387:
0536   1387 20 F6 29    				jsr			L29f6								; Init P1 values (?)
0537   138A             L138a:
0538   138A A5 C1       				lda			$c1
0539   138C F0 1F       				beq			L13ad
0540   138E             L138e:
0541   138E 20 25 2E    				jsr			L2e25								; Clear screen
0542   1391 20 53 24    				jsr			L2453								; Write characte ram and ??
0543   1394 20 A5 14    				jsr			L14a5
0544   1397 20 8B 25    				jsr			L258b
0545   139A A5 B1       				lda			$b1
0546   139C 4A          				lsr			a
0547   139D 69 00       				adc			#$00
0548   139F D0 02       				bne			L13a3
0549   13A1 A9 01       				lda			#$01
0550   13A3             L13a3:
0551   13A3 85 80       				sta			$80
0552   13A5 A9 00       				lda			#$00
0553   13A7 85 3E       				sta			$3e
0554   13A9 20 82 11    				jsr			L1182
0555   13AC 60          				rts
0556   13AD             L13ad:
0557   13AD 4C 7E 12    				jmp			L127e
0558   13B0             
0559   13B0             				;; Done at start of new level in attract
0560   13B0             L13b0:
0561   13B0 A9 FF       				lda			#$ff
0562   13B2 85 65       				sta			$65
0563   13B4 85 6C       				sta			$6c
0564   13B6 8D F2 13    				sta			L13f2
0565   13B9 8D 01 52    				sta			$5201								; Audio2
0566   13BC A9 90       				lda			#$90
0567   13BE 85 A3       				sta			$a3
0568   13C0 8D 00 52    				sta			$5200								; Audio1
0569   13C3 A9 00       				lda			#$00
0570   13C5 85 A4       				sta			$a4
0571   13C7 85 A9       				sta			$a9
0572   13C9 85 64       				sta			$64
0573   13CB 85 70       				sta			$70
0574   13CD 60          				rts
0575   13CE             
0576   13CE             L13ce:
0577   13CE 20 02 14    				jsr			L1402
0578   13D1 A5 1B       				lda			$1b
0579   13D3 D0 0F       				bne			L13e4
0580   13D5 24 6C       				bit			$6c
0581   13D7 10 0F       				bpl			L13e8
0582   13D9 24 A4       				bit			$a4
0583   13DB 10 15       				bpl			L13f2
0584   13DD 60          				rts
0585   13DE             L13de:
0586   13DE A9 DF       				lda			#$df
0587   13E0 20 64 22    				jsr			L2264
0588   13E3 60          				rts
0589   13E4             L13e4:
0590   13E4 A9 0F       				lda			#$0f
0591   13E6 85 6C       				sta			$6c
0592   13E8             L13e8:
0593   13E8 A9 20       				lda			#$20
0594   13EA 20 69 22    				jsr			L2269
0595   13ED C6 6C       				dec			$6c
0596   13EF 30 ED       				bmi			L13de
0597   13F1 60          				rts
0598   13F2             L13f2:
0599   13F2 A9 02       				lda			#$02
0600   13F4 20 69 22    				jsr			L2269
0601   13F7 C6 A4       				dec			$a4
0602   13F9 30 01       				bmi			L13fc
0603   13FB 60          				rts
0604   13FC             L13fc:
0605   13FC A9 FD       				lda			#$fd
0606   13FE 20 64 22    				jsr			L2264
0607   1401 60          				rts
0608   1402             L1402:
0609   1402 A5 70       				lda			$70
0610   1404 F0 08       				beq			L140e
0611   1406 A9 00       				lda			#$00
0612   1408 85 A9       				sta			$a9
0613   140A A9 04       				lda			#$04
0614   140C 85 72       				sta			$72
0615   140E             L140e:
0616   140E A5 72       				lda			$72
0617   1410 F0 03       				beq			L1415
0618   1412 4C 8C 14    				jmp			L148c
0619   1415             L1415:
0620   1415 24 65       				bit			$65
0621   1417 30 37       				bmi			L1450
0622   1419 C6 A9       				dec			$a9
0623   141B 10 6E       				bpl			L148b
0624   141D A6 65       				ldx			$65
0625   141F A9 05       				lda			#$05
0626   1421 85 A9       				sta			$a9
0627   1423 BD A1 34    				lda			L34a1, x
0628   1426 C9 FF       				cmp			#$ff
0629   1428 F0 06       				beq			L1430
0630   142A 8D 01 52    				sta			$5201										; Audio2
0631   142D E6 65       				inc			$65
0632   142F 60          				rts
0633   1430             L1430:
0634   1430 A9 FF       				lda			#$ff
0635   1432 85 65       				sta			$65
0636   1434 8D 01 52    				sta			$5201										; Audio2
0637   1437 60          				rts
0638   1438             L1438:
0639   1438 C6 A9       				dec			$a9
0640   143A 10 4F       				bpl			L148b
0641   143C A5 64       				lda			$64
0642   143E 29 03       				and			#$03										; Mask 2 LSBs 
0643   1440 AA          				tax
0644   1441 A9 15       				lda			#$15
0645   1443 38          				sec
0646   1444 E5 6F       				sbc			$6f
0647   1446 E5 6F       				sbc			$6f
0648   1448 85 A9       				sta			$a9
0649   144A BD AA 34    				lda			L34aa, x
0650   144D 4C 7F 14    				jmp			L147f
0651   1450             L1450:
0652   1450 AD 52 02    				lda			L0252
0653   1453 29 20       				and			#$20
0654   1455 F0 E1       				beq			L1438
0655   1457 AD 62 02    				lda			L0262
0656   145A 29 20       				and			#$20
0657   145C F0 DA       				beq			L1438
0658   145E C6 A9       				dec			$a9
0659   1460 10 29       				bpl			L148b
0660   1462 A5 64       				lda			$64
0661   1464 29 3F       				and			#$3f
0662   1466 AA          				tax
0663   1467 A9 26       				lda			#$26
0664   1469 E0 20       				cpx			#$20
0665   146B 90 02       				bcc			L146f
0666   146D A9 14       				lda			#$14
0667   146F             L146f:
0668   146F 38          				sec
0669   1470 E5 6F       				sbc			$6f
0670   1472 E5 6F       				sbc			$6f
0671   1474 E0 1F       				cpx			#$1f
0672   1476 B0 02       				bcs			L147a
0673   1478 E5 6F       				sbc			$6f
0674   147A             L147a:
0675   147A 85 A9       				sta			$a9
0676   147C BD 61 34    				lda			L3461, x
0677   147F             L147f:
0678   147F 85 A8       				sta			$a8
0679   1481 8D 01 52    				sta			$5201								; Audio2
0680   1484 E6 64       				inc			$64
0681   1486 A9 90       				lda			#$90
0682   1488 8D 00 52    				sta			$5200								; Audio1
0683   148B             L148b:
0684   148B 60          				rts
0685   148C             L148c:
0686   148C C6 A9       				dec			$a9
0687   148E 30 01       				bmi			L1491
0688   1490 60          				rts
0689   1491             L1491:
0690   1491 A5 72       				lda			$72
0691   1493 29 03       				and			#$03
0692   1495 AA          				tax
0693   1496 BD 5D 34    				lda			L345d, x
0694   1499 8D 01 52    				sta			$5201										; Audio2
0695   149C 85 A8       				sta			$a8
0696   149E A9 06       				lda			#$06
0697   14A0 85 A9       				sta			$a9
0698   14A2 C6 72       				dec			$72
0699   14A4 60          				rts
0700   14A5             
0701   14A5             
0702   14A5             L14a5:
0703   14A5 A9 10       				lda			#$10
0704   14A7 8D 00 52    				sta			$5200										; Audio1
0705   14AA A9 EE       				lda			#$ee
0706   14AC 85 1A       				sta			$1a
0707   14AE A9 0C       				lda			#$0c										; GET READY
0708   14B0 20 00 2B    				jsr			L2b00										; Draw language string a
0709   14B3 A9 0D       				lda			#$0d										; PLAYER _
0710   14B5 20 00 2B    				jsr			L2b00										; Draw language string a
0711   14B8 A4 C1       				ldy			$c1
0712   14BA A5 BF       				lda			$bf
0713   14BC 09 30       				ora			#$30
0714   14BE AA          				tax
0715   14BF A5 A7       				lda			$a7
0716   14C1 29 04       				and			#$04
0717   14C3 D0 21       				bne			L14e6
0718   14C5 8A          				txa
0719   14C6 8D 55 42    				sta			$4255
0720   14C9 A9 E4       				lda			#$e4
0721   14CB             L14cb:
0722   14CB 99 AF 42    				sta			$42af, y
0723   14CE 88          				dey
0724   14CF D0 FA       				bne			L14cb
0725   14D1 20 59 2D    				jsr			L2d59
0726   14D4 A9 20       				lda			#$20
0727   14D6 8D B0 42    				sta			$42b0
0728   14D9 A9 48       				lda			#$48
0729   14DB 85 1D       				sta			$1d
0730   14DD A9 80       				lda			#$80
0731   14DF 85 1C       				sta			$1c
0732   14E1 A2 00       				ldx			#$00
0733   14E3 4C 07 15    				jmp			L1507
0734   14E6             L14e6:
0735   14E6 8A          				txa
0736   14E7 8D AA 41    				sta			$41aa
0737   14EA A2 05       				ldx			#$05
0738   14EC A9 E5       				lda			#$e5
0739   14EE             L14ee:
0740   14EE 9D 6A 41    				sta			$416a, x
0741   14F1 CA          				dex
0742   14F2 88          				dey
0743   14F3 D0 F9       				bne			L14ee
0744   14F5 20 59 2D    				jsr			L2d59
0745   14F8 A9 20       				lda			#$20
0746   14FA 8D 6F 41    				sta			$416f
0747   14FD A9 9A       				lda			#$9a
0748   14FF 85 1D       				sta			$1d
0749   1501 A9 60       				lda			#$60
0750   1503 85 1C       				sta			$1c
0751   1505 A2 04       				ldx			#$04
0752   1507             L1507:
0753   1507 A9 90       				lda			#$90
0754   1509 8D 00 52    				sta			$5200								; Audio1
0755   150C A9 00       				lda			#$00
0756   150E 85 42       				sta			$42
0757   1510 85 43       				sta			$43
0758   1512 85 A9       				sta			$a9
0759   1514 85 03       				sta			$03
0760   1516             L1516:
0761   1516 BD 09 34    				lda			L3409, x
0762   1519 85 41       				sta			$41
0763   151B BD 11 34    				lda			L3411, x
0764   151E 85 1A       				sta			$1a
0765   1520 BD 19 34    				lda			L3419, x
0766   1523 85 1F       				sta			$1f
0767   1525 BD 21 34    				lda			L3421, x
0768   1528 85 1E       				sta			$1e
0769   152A 20 39 15    				jsr			L1539
0770   152D E8          				inx
0771   152E E6 03       				inc			$03
0772   1530 A5 03       				lda			$03
0773   1532 C9 04       				cmp			#$04
0774   1534 90 E0       				bcc			L1516
0775   1536 C6 C1       				dec			$c1
0776   1538 60          				rts
0777   1539             L1539:
0778   1539 20 71 15    				jsr			L1571
0779   153C C6 43       				dec			$43
0780   153E 10 17       				bpl			L1557
0781   1540 A9 08       				lda			#$08
0782   1542 85 43       				sta			$43
0783   1544 C6 A9       				dec			$a9
0784   1546 10 0F       				bpl			L1557
0785   1548 A4 42       				ldy			$42
0786   154A B9 29 34    				lda			L3429, y
0787   154D 8D 01 52    				sta			$5201								; Audio2
0788   1550 B9 43 34    				lda			L3443, y
0789   1553 85 A9       				sta			$a9
0790   1555 E6 42       				inc			$42
0791   1557             L1557:
0792   1557 A5 1F       				lda			$1f
0793   1559 F0 0A       				beq			L1565
0794   155B 18          				clc
0795   155C 65 1D       				adc			$1d
0796   155E 85 1D       				sta			$1d
0797   1560 C5 41       				cmp			$41
0798   1562 D0 D5       				bne			L1539
0799   1564 60          				rts
0800   1565             L1565:
0801   1565 A5 1E       				lda			$1e
0802   1567 18          				clc
0803   1568 65 1C       				adc			$1c
0804   156A 85 1C       				sta			$1c
0805   156C C5 41       				cmp			$41
0806   156E D0 C9       				bne			L1539
0807   1570 60          				rts
0808   1571             L1571:
0809   1571 A9 01       				lda			#$01
0810   1573 85 17       				sta			$17
0811   1575             L1575:
0812   1575 C6 16       				dec			$16
0813   1577 D0 FC       				bne			L1575
0814   1579 C6 17       				dec			$17
0815   157B 10 F8       				bpl			L1575
0816   157D 60          				rts
0817   157E             
0818   157E             				;; Start attract?
0819   157E             L157e:
0820   157E A9 EE       				lda			#$ee
0821   1580 8D 00 51    				sta			$5100
0822   1583 85 1A       				sta			$1a
0823   1585 A9 10       				lda			#$10
0824   1587 85 A3       				sta			$a3											; Audio1 store
0825   1589 8D 00 52    				sta			$5200										; Audio1
0826   158C A9 FF       				lda			#$ff
0827   158E 8D 01 52    				sta			$5201										; Audio2
0828   1591 A9 00       				lda			#$00
0829   1593 85 A7       				sta			$a7
0830   1595 85 C3       				sta			$c3
0831   1597 85 6F       				sta			$6f
0832   1599 85 76       				sta			$76
0833   159B 20 25 2E    				jsr			L2e25										; Clear screen
0834   159E 20 53 24    				jsr			L2453										; Write characte ram and ??
0835   15A1 20 25 25    				jsr			L2525										; Title/coinage screen
0836   15A4 EE 02 01    				inc			L0102										; Attract cycle
0837   15A7 AD 02 01    				lda			L0102										; Attract cycle
0838   15AA 29 0F       				and			#$0f
0839   15AC C9 0A       				cmp			#$0a
0840   15AE 90 02       				bcc			L15b2										; < $0a
0841   15B0             
0842   15B0 A9 01       				lda			#$01
0843   15B2             L15b2:
0844   15B2 85 76       				sta			$76											; Points for enemy
0845   15B4 85 C3       				sta			$c3
0846   15B6 8D 02 01    				sta			L0102										; Attract cycle
0847   15B9 09 30       				ora			#$30										; To char code
0848   15BB 8D 6E 42    				sta			$426e										; Draw to screen
0849   15BE             				
0850   15BE C6 76       				dec			$76
0851   15C0 E6 63       				inc			$63
0852   15C2 20 82 11    				jsr			L1182
0853   15C5 A9 1F       				lda			#$1f
0854   15C7 85 17       				sta			$17
0855   15C9             L15c9:
0856   15C9 20 61 2B    				jsr			L2b61										; Draw DEPOSIT COIN
0857   15CC             
0858   15CC             L15cc:
0859   15CC A5 A1       				lda			$a1											; Credits?
0860   15CE D0 45       				bne			L1615										; Check P1/P2
0861   15D0             
0862   15D0 E6 3F       				inc			$3f
0863   15D2 D0 F5       				bne			L15c9										; Loop
0864   15D4 C6 17       				dec			$17
0865   15D6 D0 F1       				bne			L15c9										; Loop
0866   15D8             				
0867   15D8 20 6E 28    				jsr			L286e
0868   15DB A9 0D       				lda			#$0d
0869   15DD 85 17       				sta			$17
0870   15DF A9 0C       				lda			#$0c
0871   15E1 85 B8       				sta			$b8
0872   15E3 85 B3       				sta			$b3
0873   15E5 A9 FF       				lda			#$ff
0874   15E7 8D 52 02    				sta			$0252
0875   15EA 8D 62 02    				sta			$0262
0876   15ED 20 82 11    				jsr			L1182
0877   15F0 A9 24       				lda			#$24
0878   15F2 85 74       				sta			$74
0879   15F4 20 CD 11    				jsr			L11cd
0880   15F7             L15f7:
0881   15F7 20 C4 10    				jsr			L10c4
0882   15FA 20 83 16    				jsr			L1683
0883   15FD A5 A1       				lda			$a1									; Credits
0884   15FF D0 06       				bne			L1607
0885   1601             
0886   1601 A5 30       				lda			$30
0887   1603 29 02       				and			#$02
0888   1605 F0 03       				beq			L160a
0889   1607             L1607:
0890   1607 4C 7E 15    				jmp			L157e
0891   160A             
0892   160A             L160a:
0893   160A C6 3F       				dec			$3f
0894   160C D0 E9       				bne			L15f7
0895   160E C6 17       				dec			$17
0896   1610 D0 E5       				bne			L15f7
0897   1612 4C 7E 15    				jmp			L157e
0898   1615             
0899   1615             L1615:
0900   1615 E6 62       				inc			$62
0901   1617 AD 05 51    				lda			$5105								; Player inputs
0902   161A 49 FF       				eor			#$ff									; Invert
0903   161C 29 03       				and			#$03									; Mask start
0904   161E C9 01       				cmp			#$01
0905   1620 F0 1C       				beq			L163e								; P1 pressed
0906   1622             
0907   1622 C9 02       				cmp			#$02
0908   1624 F0 0A       				beq			L1630								; P2 pressed
0909   1626             
0910   1626 C6 16       				dec			$16
0911   1628 D0 A2       				bne			L15cc
0912   162A             
0913   162A 20 44 28    				jsr			L2844								; Flash press start
0914   162D 4C CC 15    				jmp			L15cc
0915   1630             
0916   1630             L1630:
0917   1630 A5 A1       				lda			$a1									; Credits
0918   1632 C9 02       				cmp			#$02									; 2 credits?
0919   1634 B0 03       				bcs			L1639								; Enough credits for 2P
0920   1636             
0921   1636 4C C9 15    				jmp			L15c9
0922   1639             
0923   1639             L1639:
0924   1639 20 77 26    				jsr			L2677								; Decrement credits
0925   163C A9 02       				lda			#$02									; 2 Players
0926   163E             
0927   163E             L163e:
0928   163E 85 C0       				sta			$c0									; # Players
0929   1640 20 77 26    				jsr			L2677								; Decrement credits
0930   1643             
0931   1643 A9 03       				lda			#$03
0932   1645 85 28       				sta			$28
0933   1647 20 25 2E    				jsr			L2e25								; Clear screen
0934   164A             
0935   164A A9 01       				lda			#$01
0936   164C 85 BF       				sta			$bf
0937   164E A9 80       				lda			#$80
0938   1650 85 A7       				sta			$a7
0939   1652 A5 C0       				lda			$c0
0940   1654 C9 02       				cmp			#$02
0941   1656 D0 03       				bne			L165b
0942   1658 20 66 16    				jsr			L1666
0943   165B             L165b:
0944   165B 20 66 16    				jsr			L1666
0945   165E A9 00       				lda			#$00
0946   1660 8D 02 01    				sta			L0102
0947   1663 4C 5A 10    				jmp			L105a
0948   1666             L1666:
0949   1666 A9 90       				lda			#$90
0950   1668 8D 00 52    				sta			$5200								; Audio1
0951   166B A2 00       				ldx			#$00
0952   166D             L166d:
0953   166D BD E3 33    				lda			L33e3, x
0954   1670 8D 01 52    				sta			$5201								; Audio2
0955   1673 BC F6 33    				ldy			L33f6, x
0956   1676             L1676:
0957   1676 C6 A9       				dec			$a9
0958   1678 D0 FC       				bne			L1676
0959   167A 88          				dey
0960   167B 10 F9       				bpl			L1676
0961   167D E8          				inx
0962   167E E0 12       				cpx			#$12
0963   1680 D0 EB       				bne			L166d
0964   1682 60          				rts
0965   1683             L1683:
0966   1683 A5 3F       				lda			$3f
0967   1685 29 1F       				and			#$1f
0968   1687 C9 0F       				cmp			#$0f
0969   1689 F0 15       				beq			L16a0
0970   168B C9 08       				cmp			#$08
0971   168D F0 07       				beq			L1696
0972   168F A5 34       				lda			$34
0973   1691 29 EF       				and			#$ef
0974   1693 85 34       				sta			$34
0975   1695 60          				rts
0976   1696             L1696:
0977   1696 20 39 2E    				jsr			L2e39
0978   1699 29 10       				and			#$10
0979   169B 05 34       				ora			$34
0980   169D 85 34       				sta			$34
0981   169F 60          				rts
0982   16A0             L16a0:
0983   16A0 20 39 2E    				jsr			L2e39
0984   16A3 B0 0E       				bcs			L16b3
0985   16A5 70 0C       				bvs			L16b3
0986   16A7 E6 70       				inc			$70
0987   16A9 A5 70       				lda			$70
0988   16AB 29 07       				and			#$07
0989   16AD AA          				tax
0990   16AE BD DB 33    				lda			L33db, x
0991   16B1 85 34       				sta			$34
0992   16B3             L16b3:
0993   16B3 60          				rts
0994   16B4             
0995   16B4             				;; Garbage to $17ff?
0996   16B4             L16b4:
0997   16B4 BD DB 33 85 				.db			$bd, $db, $33, $85		; DATA
0998   16B8 34 60 16 85 				.db			$34, $60, $16, $85		; DATA
0999   16BC 41 20 C8 16 				.db			$41, $20, $c8, $16		; DATA
1000   16C0 85 42 AA C8 				.db			$85, $42, $aa, $c8		; DATA
1001   16C4 16 85 43 60 				.db			$16, $85, $43, $60		; DATA
1002   16C8 BC C3 31 B1 				.db			$bc, $c3, $31, $b1		; DATA
1003   16CC 66 53 60 A5 				.db			$66, $53, $60, $a5		; DATA
1004   16D0 41 C9 E8 F0 				.db			$41, $c9, $e8, $f0		; DATA
1005   16D4 0D C9 20 D0 				.db			$0d, $c9, $20, $d0		; DATA
1006   16D8 0F A5 05 09 				.db			$0f, $a5, $05, $09		; DATA
1007   16DC 04 85 05 4C 				.db			$04, $85, $05, $4c		; DATA
1008   16E0 E8 16 AA 05 				.db			$e8, $16, $aa, $05		; DATA
1009   16E4 09 24 85 05 				.db			$09, $24, $85, $05		; DATA
1010   16E8 A5 42 C9 20 				.db			$a5, $42, $c9, $20		; DATA
1011   16EC D0 53 A5 05 				.db			$d0, $53, $a5, $05		; DATA
1012   16F0 09 02 85 05 				.db			$09, $02, $85, $05		; DATA
1013   16F4 A5 43 C9 20 				.db			$a5, $43, $c9, $20		; DATA
1014   16F8 D0 06 A5 05 				.db			$d0, $06, $a5, $05		; DATA
1015   16FC 09 01 85 05 				.db			$09, $01, $85, $05		; DATA
1016   1700 A5 09 AA 18 				.db			$a5, $09, $aa, $18		; DATA
1017   1704 4A AA A5 0E 				.db			$4a, $aa, $a5, $0e		; DATA
1018   1708 18 69 DF 85 				.db			$18, $69, $df, $85		; DATA
1019   170C 66 53 0F 69 				.db			$66, $53, $0f, $69		; DATA
1020   1710 FF 85 67 20 				.db			$ff, $85, $67, $20		; DATA
1021   1714 23 17 85 41 				.db			$23, $17, $85, $41		; DATA
1022   1718 20 23 17 85 				.db			$20, $23, $17, $85		; DATA
1023   171C 42 20 23 17 				.db			$42, $20, $23, $17		; DATA
1024   1720 85 43 AA BC 				.db			$85, $43, $aa, $bc		; DATA
1025   1724 1B 32 B1 66 				.db			$1b, $32, $b1, $66		; DATA
1026   1728 E8 60 A5 41 				.db			$e8, $60, $a5, $41		; DATA
1027   172C C9 53 F0 0D 				.db			$c9, $53, $f0, $0d		; DATA
1028   1730 C9 20 D0 0F 				.db			$c9, $20, $d0, $0f		; DATA
1029   1734 A5 05 09 04 				.db			$a5, $05, $09, $04		; DATA
1030   1738 85 05 4C 43 				.db			$85, $05, $4c, $43		; DATA
1031   173C 17 A5 05 09 				.db			$17, $a5, $05, $09		; DATA
1032   1740 24 85 AA A5 				.db			$24, $85, $aa, $a5		; DATA
1033   1744 42 C9 20 D0 				.db			$42, $c9, $20, $d0		; DATA
1034   1748 06 A5 05 09 				.db			$06, $a5, $05, $09		; DATA
1035   174C 02 53 05 A5 				.db			$02, $53, $05, $a5		; DATA
1036   1750 43 C9 20 D0 				.db			$43, $c9, $20, $d0		; DATA
1037   1754 06 A5 05 09 				.db			$06, $a5, $05, $09		; DATA
1038   1758 01 85 05 60 				.db			$01, $85, $05, $60		; DATA
1039   175C 85 03 4A 4A 				.db			$85, $03, $4a, $4a		; DATA
1040   1760 4A 26 AA 20 				.db			$4a, $26, $aa, $20		; DATA
1041   1764 AF 17 BD 03 				.db			$af, $17, $bd, $03		; DATA
1042   1768 32 85 04 A5 				.db			$32, $85, $04, $a5		; DATA
1043   176C 3D 53 65 03 				.db			$3d, $53, $65, $03		; DATA
1044   1770 AA A5 09 29 				.db			$aa, $a5, $09, $29		; DATA
1045   1774 E0 1D EB 31 				.db			$e0, $1d, $eb, $31		; DATA
1046   1778 85 09 BD F3 				.db			$85, $09, $bd, $f3		; DATA
1047   177C 31 18 65 0E 				.db			$31, $18, $65, $0e		; DATA
1048   1780 85 0E AA FB 				.db			$85, $0e, $aa, $fb		; DATA
1049   1784 31 65 0F 85 				.db			$31, $65, $0f, $85		; DATA
1050   1788 0F 60 A5 09 				.db			$0f, $60, $a5, $09		; DATA
1051   178C 29 53 85 09 				.db			$29, $53, $85, $09		; DATA
1052   1790 A5 05 29 20 				.db			$a5, $05, $29, $20		; DATA
1053   1794 F0 06 A5 08 				.db			$f0, $06, $a5, $08		; DATA
1054   1798 09 20 85 08 				.db			$09, $20, $85, $08		; DATA
1055   179C 20 AF 17 BD 				.db			$20, $af, $17, $bd		; DATA
1056   17A0 07 32 AA 65 				.db			$07, $32, $aa, $65		; DATA
1057   17A4 0E 85 0E BD 				.db			$0e, $85, $0e, $bd		; DATA
1058   17A8 0B 32 65 0F 				.db			$0b, $32, $65, $0f		; DATA
1059   17AC 85 53 60 A6 				.db			$85, $53, $60, $a6		; DATA
1060   17B0 3D BC E7 31 				.db			$3d, $bc, $e7, $31		; DATA
1061   17B4 A9 20 24 08 				.db			$a9, $20, $24, $08		; DATA
1062   17B8 10 08 A5 08 				.db			$10, $08, $a5, $08		; DATA
1063   17BC 29 7F 85 08 				.db			$29, $7f, $85, $08		; DATA
1064   17C0 A9 E8 AA 0E 				.db			$a9, $e8, $aa, $0e		; DATA
1065   17C4 06 08 60 A5 				.db			$06, $08, $60, $a5		; DATA
1066   17C8 0A 29 20 D0 				.db			$0a, $29, $20, $d0		; DATA
1067   17CC 20 53 09 A0 				.db			$20, $53, $09, $a0		; DATA
1068   17D0 00 91 0E E6 				.db			$00, $91, $0e, $e6		; DATA
1069   17D4 09 A5 09 A4 				.db			$09, $a5, $09, $a4		; DATA
1070   17D8 04 91 0E A5 				.db			$04, $91, $0e, $a5		; DATA
1071   17DC 09 29 07 C9 				.db			$09, $29, $07, $c9		; DATA
1072   17E0 07 F0 AA E6 				.db			$07, $f0, $aa, $e6		; DATA
1073   17E4 09 60 A5 0A 				.db			$09, $60, $a5, $0a		; DATA
1074   17E8 09 40 85 0A 				.db			$09, $40, $85, $0a		; DATA
1075   17EC 60 53 05 09 				.db			$60, $53, $05, $09		; DATA
1076   17F0 40 85 05 A9 				.db			$40, $85, $05, $a9		; DATA
1077   17F4 20 A0 00 91 				.db			$20, $a0, $00, $91		; DATA
1078   17F8 0E A4 04 91 				.db			$0e, $a4, $04, $91		; DATA
1079   17FC 0E A5 08 F0 				.db			$0e, $a5, $08, $f0		; DATA
1080   1800             
1081   1800             				
1082   1800             L1800:
1083   1800 A5 09       				lda			$09
1084   1802 29 18       				and			#$18
1085   1804 4A          				lsr			a
1086   1805 AA          				tax
1087   1806 A5 0E       				lda			$0e
1088   1808 18          				clc
1089   1809 69 DF       				adc			#$df
1090   180B 85 66       				sta			$66
1091   180D A5 0F       				lda			$0f
1092   180F 69 FF       				adc			#$ff
1093   1811 85 67       				sta			$67
1094   1813 20 23 18    				jsr			L1823
1095   1816 85 41       				sta			$41
1096   1818             L1818:
1097   1818 20 23 18    				jsr			L1823
1098   181B 85 42       				sta			$42
1099   181D 20 23 18    				jsr			L1823
1100   1820 85 43       				sta			$43
1101   1822 60          				rts
1102   1823             L1823:
1103   1823 BC CD 32    				ldy			L32cd, x
1104   1826 B1 66       				lda			($66), y
1105   1828 E8          				inx
1106   1829 60          				rts
1107   182A             
1108   182A             
1109   182A             L182a:
1110   182A A5 41       				lda			$41
1111   182C C9 E8       				cmp			#$e8
1112   182E F0 0D       				beq			L183d
1113   1830 C9 20       				cmp			#$20
1114   1832 D0 0F       				bne			L1843
1115   1834 A5 05       				lda			$05
1116   1836 09 04       				ora			#$04
1117   1838 85 05       				sta			$05
1118   183A 4C 43 18    				jmp			L1843
1119   183D             L183d:
1120   183D A5 05       				lda			$05
1121   183F 09 24       				ora			#$24
1122   1841 85 05       				sta			$05
1123   1843             L1843:
1124   1843 A5 42       				lda			$42
1125   1845 C9 20       				cmp			#$20
1126   1847 D0 06       				bne			L184f
1127   1849 A5 05       				lda			$05
1128   184B 09 02       				ora			#$02
1129   184D 85 05       				sta			$05
1130   184F             L184f:
1131   184F A5 43       				lda			$43
1132   1851 C9 20       				cmp			#$20
1133   1853 D0 06       				bne			L185b
1134   1855 A5 05       				lda			$05
1135   1857 09 01       				ora			#$01
1136   1859 85 05       				sta			$05
1137   185B             L185b:
1138   185B 60          				rts
1139   185C             L185c:
1140   185C 85 03       				sta			$03
1141   185E 4A          				lsr			a
1142   185F 4A          				lsr			a
1143   1860 4A          				lsr			a
1144   1861 26 0D       				rol			$0d
1145   1863 20 AF 18    				jsr			L18af
1146   1866 BD B5 32    				lda			L32b5, x
1147   1869 85 04       				sta			$04
1148   186B A5 3D       				lda			$3d
1149   186D 18          				clc
1150   186E 65 03       				adc			$03
1151   1870 AA          				tax
1152   1871 A5 09       				lda			$09
1153   1873 29 E0       				and			#$e0
1154   1875 1D 9D 32    				ora			L329d, x
1155   1878 85 09       				sta			$09
1156   187A BD A5 32    				lda			L32a5, x
1157   187D 18          				clc
1158   187E 65 0E       				adc			$0e
1159   1880 85 0E       				sta			$0e
1160   1882 BD AD 32    				lda			L32ad, x
1161   1885 65 0F       				adc			$0f
1162   1887 85 0F       				sta			$0f
1163   1889 60          				rts
1164   188A             L188a:
1165   188A A5 09       				lda			$09
1166   188C 29 F8       				and			#$f8
1167   188E 85 09       				sta			$09
1168   1890 A5 05       				lda			$05
1169   1892 29 20       				and			#$20
1170   1894 F0 06       				beq			L189c
1171   1896 A5 08       				lda			$08
1172   1898 09 20       				ora			#$20
1173   189A 85 08       				sta			$08
1174   189C             L189c:
1175   189C 20 AF 18    				jsr			L18af
1176   189F BD B9 32    				lda			L32b9, x
1177   18A2 18          				clc
1178   18A3 65 0E       				adc			$0e
1179   18A5 85 0E       				sta			$0e
1180   18A7 BD BD 32    				lda			L32bd, x
1181   18AA 65 0F       				adc			$0f
1182   18AC 85 0F       				sta			$0f
1183   18AE 60          				rts
1184   18AF             L18af:
1185   18AF A6 3D       				ldx			$3d
1186   18B1 BC 99 32    				ldy			L3299, x
1187   18B4 A9 20       				lda			#$20
1188   18B6 24 08       				bit			$08
1189   18B8 10 08       				bpl			L18c2
1190   18BA A5 08       				lda			$08
1191   18BC 29 7F       				and			#$7f
1192   18BE 85 08       				sta			$08
1193   18C0 A9 E8       				lda			#$e8
1194   18C2             L18c2:
1195   18C2 91 0E       				sta			($0e), y
1196   18C4 06 08       				asl			$08
1197   18C6 60          				rts
1198   18C7             L18c7:
1199   18C7 A5 0A       				lda			$0a
1200   18C9 29 20       				and			#$20
1201   18CB D0 20       				bne			L18ed
1202   18CD A5 09       				lda			$09
1203   18CF A0 00       				ldy			#$00
1204   18D1 91 0E       				sta			($0e), y
1205   18D3 E6 09       				inc			$09
1206   18D5 A5 09       				lda			$09
1207   18D7 A4 04       				ldy			$04
1208   18D9 91 0E       				sta			($0e), y
1209   18DB A5 09       				lda			$09
1210   18DD 29 07       				and			#$07
1211   18DF C9 07       				cmp			#$07
1212   18E1 F0 03       				beq			L18e6
1213   18E3 E6 09       				inc			$09
1214   18E5 60          				rts
1215   18E6             L18e6:
1216   18E6 A5 0A       				lda			$0a
1217   18E8 09 40       				ora			#$40
1218   18EA 85 0A       				sta			$0a
1219   18EC 60          				rts
1220   18ED             L18ed:
1221   18ED A5 05       				lda			$05
1222   18EF 09 40       				ora			#$40
1223   18F1 85 05       				sta			$05
1224   18F3 A9 20       				lda			#$20
1225   18F5 A0 00       				ldy			#$00
1226   18F7 91 0E       				sta			($0e), y
1227   18F9 A4 04       				ldy			$04
1228   18FB 91 0E       				sta			($0e), y
1229   18FD A5 08       				lda			$08
1230   18FF F0 02       				beq			L1903
1231   1901 C6 74       				dec			$74
1232   1903             L1903:
1233   1903 A5 09       				lda			$09
1234   1905 C9 20       				cmp			#$20
1235   1907 90 05       				bcc			L190e
1236   1909 24 0A       				bit			$0a
1237   190B 30 09       				bmi			L1916
1238   190D 60          				rts
1239   190E             L190e:
1240   190E A9 48       				lda			#$48
1241   1910 20 1C 19    				jsr			L191c
1242   1913 C6 2F       				dec			$2f
1243   1915 60          				rts
1244   1916             L1916:
1245   1916 A9 00       				lda			#$00
1246   1918 8D 5B 02    				sta			L025b
1247   191B 60          				rts
1248   191C             L191c:
1249   191C 85 41       				sta			$41
1250   191E A4 32       				ldy			$32
1251   1920             L1920:
1252   1920 B9 08 02    				lda			L0208, y
1253   1923 99 00 02    				sta			L0200, y
1254   1926 C8          				iny
1255   1927 C4 41       				cpy			$41
1256   1929 90 F5       				bcc			L1920
1257   192B 60          				rts
1258   192C             L192c:
1259   192C A5 1A       				lda			$1a
1260   192E 29 03       				and			#$03
1261   1930 AA          				tax
1262   1931 BD C5 32    				lda			L32c5, x
1263   1934 18          				clc
1264   1935 65 2A       				adc			$2a
1265   1937 85 66       				sta			$66
1266   1939 BD C9 32    				lda			L32c9, x
1267   193C 65 2B       				adc			$2b
1268   193E 85 67       				sta			$67
1269   1940 A5 0E       				lda			$0e
1270   1942 29 1F       				and			#$1f
1271   1944 85 00       				sta			$00
1272   1946 A5 66       				lda			$66
1273   1948 29 1F       				and			#$1f
1274   194A 38          				sec
1275   194B E5 00       				sbc			$00
1276   194D 85 2D       				sta			$2d
1277   194F A5 0F       				lda			$0f
1278   1951 85 19       				sta			$19
1279   1953 A5 0E       				lda			$0e
1280   1955 85 18       				sta			$18
1281   1957 20 6D 19    				jsr			L196d
1282   195A 85 00       				sta			$00
1283   195C A5 67       				lda			$67
1284   195E 85 19       				sta			$19
1285   1960 A5 66       				lda			$66
1286   1962 85 18       				sta			$18
1287   1964 20 6D 19    				jsr			L196d
1288   1967 38          				sec
1289   1968 E5 00       				sbc			$00
1290   196A 85 2C       				sta			$2c
1291   196C 60          				rts
1292   196D             L196d:
1293   196D A2 05       				ldx			#$05
1294   196F             L196f:
1295   196F 66 19       				ror			$19
1296   1971 66 18       				ror			$18
1297   1973 CA          				dex
1298   1974 D0 F9       				bne			L196f
1299   1976 A5 18       				lda			$18
1300   1978 29 1F       				and			#$1f
1301   197A 60          				rts
1302   197B             L197b:
1303   197B A5 1A       				lda			$1a
1304   197D 29 03       				and			#$03
1305   197F 18          				clc
1306   1980 65 3D       				adc			$3d
1307   1982 85 03       				sta			$03
1308   1984 A5 05       				lda			$05
1309   1986 29 18       				and			#$18
1310   1988 C9 08       				cmp			#$08
1311   198A F0 4E       				beq			L19da
1312   198C C9 10       				cmp			#$10
1313   198E F0 34       				beq			L19c4
1314   1990             L1990:
1315   1990 A6 3D       				ldx			$3d
1316   1992 A5 2D       				lda			$2d
1317   1994 10 02       				bpl			L1998
1318   1996 49 FF       				eor			#$ff
1319   1998             L1998:
1320   1998 85 00       				sta			$00
1321   199A A5 2C       				lda			$2c
1322   199C 10 02       				bpl			L19a0
1323   199E 49 FF       				eor			#$ff
1324   19A0             L19a0:
1325   19A0 C5 00       				cmp			$00
1326   19A2 B0 10       				bcs			L19b4
1327   19A4 A5 2D       				lda			$2d
1328   19A6 10 06       				bpl			L19ae
1329   19A8 BD F1 32    				lda			L32f1, x
1330   19AB 4C C1 19    				jmp			L19c1
1331   19AE             L19ae:
1332   19AE BD F5 32    				lda			L32f5, x
1333   19B1 4C C1 19    				jmp			L19c1
1334   19B4             L19b4:
1335   19B4 A5 2C       				lda			$2c
1336   19B6 10 06       				bpl			L19be
1337   19B8 BD E9 32    				lda			L32e9, x
1338   19BB 4C C1 19    				jmp			L19c1
1339   19BE             L19be:
1340   19BE BD ED 32    				lda			L32ed, x
1341   19C1             L19c1:
1342   19C1 85 B2       				sta			$b2
1343   19C3 60          				rts
1344   19C4             L19c4:
1345   19C4 A5 03       				lda			$03
1346   19C6 C9 04       				cmp			#$04
1347   19C8 90 C6       				bcc			L1990
1348   19CA 24 2D       				bit			$2d
1349   19CC 10 06       				bpl			L19d4
1350   19CE C9 06       				cmp			#$06
1351   19D0 F0 21       				beq			L19f3
1352   19D2 D0 1A       				bne			L19ee
1353   19D4             L19d4:
1354   19D4 C9 04       				cmp			#$04
1355   19D6 F0 1B       				beq			L19f3
1356   19D8 D0 14       				bne			L19ee
1357   19DA             L19da:
1358   19DA A5 03       				lda			$03
1359   19DC C9 03       				cmp			#$03
1360   19DE B0 B0       				bcs			L1990
1361   19E0 24 2C       				bit			$2c
1362   19E2 30 06       				bmi			L19ea
1363   19E4 C9 02       				cmp			#$02
1364   19E6 F0 0B       				beq			L19f3
1365   19E8 D0 04       				bne			L19ee
1366   19EA             L19ea:
1367   19EA C9 00       				cmp			#$00
1368   19EC F0 05       				beq			L19f3
1369   19EE             L19ee:
1370   19EE A9 03       				lda			#$03
1371   19F0 85 B2       				sta			$b2
1372   19F2 60          				rts
1373   19F3             L19f3:
1374   19F3 A9 00       				lda			#$00
1375   19F5 85 B2       				sta			$b2
1376   19F7 60          				rts
1377   19F8             L19f8:
1378   19F8 20 00 18    				jsr			L1800
1379   19FB 20 15 1B    				jsr			L1b15
1380   19FE A5 0A       				lda			$0a
1381   1A00 29 BF       				and			#$bf
1382   1A02 85 0A       				sta			$0a
1383   1A04 20 2A 18    				jsr			L182a
1384   1A07 24 0A       				bit			$0a
1385   1A09 10 03       				bpl			L1a0e
1386   1A0B 4C C1 1A    				jmp			L1ac1
1387   1A0E             L1a0e:
1388   1A0E 20 7B 19    				jsr			L197b
1389   1A11 A5 05       				lda			$05
1390   1A13 29 07       				and			#$07
1391   1A15 85 00       				sta			$00
1392   1A17 F0 34       				beq			L1a4d
1393   1A19 C9 01       				cmp			#$01
1394   1A1B F0 22       				beq			L1a3f
1395   1A1D C9 02       				cmp			#$02
1396   1A1F F0 19       				beq			L1a3a
1397   1A21 C9 04       				cmp			#$04
1398   1A23 F0 1F       				beq			L1a44
1399   1A25 C9 03       				cmp			#$03
1400   1A27 F0 46       				beq			L1a6f
1401   1A29 C9 05       				cmp			#$05
1402   1A2B F0 50       				beq			L1a7d
1403   1A2D C9 06       				cmp			#$06
1404   1A2F F0 55       				beq			L1a86
1405   1A31 20 8F 1A    				jsr			L1a8f
1406   1A34 A5 B2       				lda			$b2
1407   1A36 F0 0C       				beq			L1a44
1408   1A38 30 05       				bmi			L1a3f
1409   1A3A             L1a3a:
1410   1A3A A9 04       				lda			#$04
1411   1A3C 4C 5C 18    				jmp			L185c
1412   1A3F             L1a3f:
1413   1A3F A9 00       				lda			#$00
1414   1A41 4C 5C 18    				jmp			L185c
1415   1A44             L1a44:
1416   1A44 A5 05       				lda			$05
1417   1A46 09 80       				ora			#$80
1418   1A48 85 05       				sta			$05
1419   1A4A 4C 8A 18    				jmp			L188a
1420   1A4D             L1a4d:
1421   1A4D A5 09       				lda			$09
1422   1A4F 29 F8       				and			#$f8
1423   1A51 49 08       				eor			#$08
1424   1A53 85 09       				sta			$09
1425   1A55 A5 08       				lda			$08
1426   1A57 F0 15       				beq			L1a6e
1427   1A59 2A          				rol			a
1428   1A5A 26 00       				rol			$00
1429   1A5C 2A          				rol			a
1430   1A5D 66 00       				ror			$00
1431   1A5F 2A          				rol			a
1432   1A60 66 00       				ror			$00
1433   1A62 A5 00       				lda			$00
1434   1A64 29 E0       				and			#$e0
1435   1A66 85 08       				sta			$08
1436   1A68 D0 04       				bne			L1a6e
1437   1A6A A9 40       				lda			#$40
1438   1A6C 85 08       				sta			$08
1439   1A6E             L1a6e:
1440   1A6E 60          				rts
1441   1A6F             L1a6f:
1442   1A6F A5 0D       				lda			$0d
1443   1A71 F0 C7       				beq			L1a3a
1444   1A73 C9 FF       				cmp			#$ff
1445   1A75 F0 C8       				beq			L1a3f
1446   1A77 24 B2       				bit			$b2
1447   1A79 30 C4       				bmi			L1a3f
1448   1A7B 10 BD       				bpl			L1a3a
1449   1A7D             L1a7d:
1450   1A7D 20 8F 1A    				jsr			L1a8f
1451   1A80 A5 B2       				lda			$b2
1452   1A82 F0 C0       				beq			L1a44
1453   1A84 D0 B9       				bne			L1a3f
1454   1A86             L1a86:
1455   1A86 20 8F 1A    				jsr			L1a8f
1456   1A89 A5 B2       				lda			$b2
1457   1A8B F0 B7       				beq			L1a44
1458   1A8D D0 AB       				bne			L1a3a
1459   1A8F             L1a8f:
1460   1A8F 24 3E       				bit			$3e
1461   1A91 30 28       				bmi			L1abb
1462   1A93 A5 05       				lda			$05
1463   1A95 29 18       				and			#$18
1464   1A97 D0 22       				bne			L1abb
1465   1A99 A5 0D       				lda			$0d
1466   1A9B 29 0F       				and			#$0f
1467   1A9D F0 1C       				beq			L1abb
1468   1A9F C9 0F       				cmp			#$0f
1469   1AA1 F0 18       				beq			L1abb
1470   1AA3 A5 85       				lda			$85
1471   1AA5 29 0F       				and			#$0f
1472   1AA7 C9 0F       				cmp			#$0f
1473   1AA9 F0 10       				beq			L1abb
1474   1AAB C6 0B       				dec			$0b
1475   1AAD 10 0D       				bpl			L1abc
1476   1AAF A5 62       				lda			$62
1477   1AB1 29 01       				and			#$01
1478   1AB3 24 09       				bit			$09
1479   1AB5 30 02       				bmi			L1ab9
1480   1AB7 65 C3       				adc			$c3
1481   1AB9             L1ab9:
1482   1AB9 85 0B       				sta			$0b
1483   1ABB             L1abb:
1484   1ABB 60          				rts
1485   1ABC             L1abc:
1486   1ABC A9 00       				lda			#$00
1487   1ABE 85 B2       				sta			$b2
1488   1AC0 60          				rts
1489   1AC1             L1ac1:
1490   1AC1 A5 05       				lda			$05
1491   1AC3 29 04       				and			#$04
1492   1AC5 F0 03       				beq			L1aca
1493   1AC7 4C 44 1A    				jmp			L1a44
1494   1ACA             L1aca:
1495   1ACA A5 0A       				lda			$0a
1496   1ACC 09 20       				ora			#$20
1497   1ACE 85 0A       				sta			$0a
1498   1AD0 60          				rts
1499   1AD1             L1ad1:
1500   1AD1 A5 09       				lda			$09
1501   1AD3 29 10       				and			#$10
1502   1AD5 49 10       				eor			#$10
1503   1AD7 0A          				asl			a
1504   1AD8 85 04       				sta			$04
1505   1ADA D0 02       				bne			L1ade
1506   1ADC E6 04       				inc			$04
1507   1ADE             L1ade:
1508   1ADE A5 09       				lda			$09
1509   1AE0 4A          				lsr			a
1510   1AE1 4A          				lsr			a
1511   1AE2 4A          				lsr			a
1512   1AE3 29 03       				and			#$03
1513   1AE5 85 3D       				sta			$3d
1514   1AE7 20 F1 1A    				jsr			L1af1
1515   1AEA 90 04       				bcc			L1af0
1516   1AEC 20 ED 18    				jsr			L18ed
1517   1AEF 38          				sec
1518   1AF0             L1af0:
1519   1AF0 60          				rts
1520   1AF1             L1af1:
1521   1AF1 A0 00       				ldy			#$00
1522   1AF3 B1 0E       				lda			($0e), y
1523   1AF5 C9 21       				cmp			#$21
1524   1AF7 F0 10       				beq			L1b09
1525   1AF9 A4 04       				ldy			$04
1526   1AFB B1 0E       				lda			($0e), y
1527   1AFD C9 21       				cmp			#$21
1528   1AFF F0 08       				beq			L1b09
1529   1B01 A5 0A       				lda			$0a
1530   1B03 29 DF       				and			#$df
1531   1B05 85 0A       				sta			$0a
1532   1B07 18          				clc
1533   1B08 60          				rts
1534   1B09             L1b09:
1535   1B09 A5 0A       				lda			$0a
1536   1B0B 09 20       				ora			#$20
1537   1B0D 85 0A       				sta			$0a
1538   1B0F A5 09       				lda			$09
1539   1B11 85 1B       				sta			$1b
1540   1B13 38          				sec
1541   1B14 60          				rts
1542   1B15             L1b15:
1543   1B15 20 2C 19    				jsr			L192c
1544   1B18 A5 0A       				lda			$0a
1545   1B1A 29 EF       				and			#$ef
1546   1B1C 85 0A       				sta			$0a
1547   1B1E A5 2D       				lda			$2d
1548   1B20 10 02       				bpl			L1b24
1549   1B22 49 FF       				eor			#$ff
1550   1B24             L1b24:
1551   1B24 85 18       				sta			$18
1552   1B26 C9 01       				cmp			#$01
1553   1B28             L1b28:
1554   1B28 B0 0C       				bcs			L1b36
1555   1B2A A5 05       				lda			$05
1556   1B2C 09 08       				ora			#$08
1557   1B2E 85 05       				sta			$05
1558   1B30 A5 0A       				lda			$0a
1559   1B32 09 10       				ora			#$10
1560   1B34 85 0A       				sta			$0a
1561   1B36             L1b36:
1562   1B36 A5 2C       				lda			$2c
1563   1B38 10 02       				bpl			L1b3c
1564   1B3A 49 FF       				eor			#$ff
1565   1B3C             L1b3c:
1566   1B3C 85 19       				sta			$19
1567   1B3E C9 01       				cmp			#$01
1568   1B40 B0 0C       				bcs			L1b4e
1569   1B42 A5 05       				lda			$05
1570   1B44 09 10       				ora			#$10
1571   1B46 85 05       				sta			$05
1572   1B48 A5 0A       				lda			$0a
1573   1B4A 09 10       				ora			#$10
1574   1B4C 85 0A       				sta			$0a
1575   1B4E             L1b4e:
1576   1B4E A5 18       				lda			$18
1577   1B50 18          				clc
1578   1B51 65 19       				adc			$19
1579   1B53 C9 04       				cmp			#$04
1580   1B55 B0 07       				bcs			L1b5e
1581   1B57 A5 3E       				lda			$3e
1582   1B59 09 80       				ora			#$80
1583   1B5B 85 3E       				sta			$3e
1584   1B5D 60          				rts
1585   1B5E             L1b5e:
1586   1B5E A5 3E       				lda			$3e
1587   1B60 29 7F       				and			#$7f
1588   1B62 85 3E       				sta			$3e
1589   1B64 60          				rts
1590   1B65             L1b65:
1591   1B65 A6 2F       				ldx			$2f
1592   1B67 A9 00       				lda			#$00
1593   1B69             L1b69:
1594   1B69 85 32       				sta			$32
1595   1B6B 86 33       				stx			$33
1596   1B6D             L1b6d:
1597   1B6D 20 75 1B    				jsr			L1b75
1598   1B70 C6 33       				dec			$33
1599   1B72 D0 F9       				bne			L1b6d
1600   1B74 60          				rts
1601   1B75             L1b75:
1602   1B75 A4 32       				ldy			$32
1603   1B77 A2 00       				ldx			#$00
1604   1B79             L1b79:
1605   1B79 B9 00 02    				lda			L0200, y
1606   1B7C 95 08       				sta			$08, x
1607   1B7E C8          				iny
1608   1B7F E8          				inx
1609   1B80 E0 08       				cpx			#$08
1610   1B82 D0 F5       				bne			L1b79
1611   1B84 A9 00       				lda			#$00
1612   1B86 85 05       				sta			$05
1613   1B88 20 AB 1B    				jsr			L1bab
1614   1B8B 24 05       				bit			$05
1615   1B8D 50 05       				bvc			L1b94
1616   1B8F 24 09       				bit			$09
1617   1B91 30 01       				bmi			L1b94
1618   1B93 60          				rts
1619   1B94             L1b94:
1620   1B94 A4 32       				ldy			$32
1621   1B96             L1b96:
1622   1B96 A2 00       				ldx			#$00
1623   1B98             L1b98:
1624   1B98 B5 08       				lda			$08, x
1625   1B9A 99 00 02    				sta			L0200, y
1626   1B9D C8          				iny
1627   1B9E E8          				inx
1628   1B9F E0 08       				cpx			#$08
1629   1BA1 D0 F5       				bne			L1b98
1630   1BA3 A5 32       				lda			$32
1631   1BA5 18          				clc
1632   1BA6 69 08       				adc			#$08
1633   1BA8 85 32       				sta			$32
1634   1BAA 60          				rts
1635   1BAB             L1bab:
1636   1BAB 20 D1 1A    				jsr			L1ad1
1637   1BAE B0 06       				bcs			L1bb6
1638   1BB0 C6 0C       				dec			$0c
1639   1BB2 C6 0C       				dec			$0c
1640   1BB4 30 01       				bmi			L1bb7
1641   1BB6             L1bb6:
1642   1BB6 60          				rts
1643   1BB7             L1bb7:
1644   1BB7 A5 0A       				lda			$0a
1645   1BB9 29 0F       				and			#$0f
1646   1BBB 85 0C       				sta			$0c
1647   1BBD A5 85       				lda			$85
1648   1BBF 29 0F       				and			#$0f
1649   1BC1 C9 0F       				cmp			#$0f
1650   1BC3 D0 08       				bne			L1bcd
1651   1BC5 C6 0C       				dec			$0c
1652   1BC7 C6 0C       				dec			$0c
1653   1BC9 C6 0C       				dec			$0c
1654   1BCB C6 0C       				dec			$0c
1655   1BCD             L1bcd:
1656   1BCD 24 0A       				bit			$0a
1657   1BCF 30 0C       				bmi			L1bdd
1658   1BD1 A5 0C       				lda			$0c
1659   1BD3 30 04       				bmi			L1bd9
1660   1BD5 C9 02       				cmp			#$02
1661   1BD7 B0 04       				bcs			L1bdd
1662   1BD9             L1bd9:
1663   1BD9 A9 02       				lda			#$02
1664   1BDB 85 0C       				sta			$0c
1665   1BDD             L1bdd:
1666   1BDD 24 0A       				bit			$0a
1667   1BDF 50 03       				bvc			L1be4
1668   1BE1 20 F8 19    				jsr			L19f8
1669   1BE4             L1be4:
1670   1BE4 20 C7 18    				jsr			L18c7
1671   1BE7 60          				rts
1672   1BE8             L1be8:
1673   1BE8 A5 3E       				lda			$3e
1674   1BEA 29 10       				and			#$10
1675   1BEC F0 17       				beq			L1c05
1676   1BEE 24 3E       				bit			$3e
1677   1BF0 50 64       				bvc			L1c56
1678   1BF2 A5 3E       				lda			$3e
1679   1BF4 29 20       				and			#$20
1680   1BF6 D0 5E       				bne			L1c56
1681   1BF8 A9 01       				lda			#$01
1682   1BFA 85 80       				sta			$80
1683   1BFC 20 84 28    				jsr			L2884
1684   1BFF             L1bff:
1685   1BFF A5 B8       				lda			$b8
1686   1C01 C9 0F       				cmp			#$0f
1687   1C03 B0 01       				bcs			L1c06
1688   1C05             L1c05:
1689   1C05 60          				rts
1690   1C06             L1c06:
1691   1C06 A0 00       				ldy			#$00
1692   1C08 84 B8       				sty			$b8
1693   1C0A 84 B9       				sty			$b9
1694   1C0C 84 08       				sty			$08
1695   1C0E 84 0D       				sty			$0d
1696   1C10 20 70 29    				jsr			L2970
1697   1C13 20 1E 2A    				jsr			L2a1e
1698   1C16 A5 94       				lda			$94
1699   1C18 0A          				asl			a
1700   1C19 85 93       				sta			$93
1701   1C1B 0A          				asl			a
1702   1C1C 0A          				asl			a
1703   1C1D 49 10       				eor			#$10
1704   1C1F 29 1F       				and			#$1f
1705   1C21 85 09       				sta			$09
1706   1C23 E6 6A       				inc			$6a
1707   1C25 A5 6A       				lda			$6a
1708   1C27 29 01       				and			#$01
1709   1C29 AA          				tax
1710   1C2A BD C1 32    				lda			L32c1, x
1711   1C2D 05 09       				ora			$09
1712   1C2F 85 09       				sta			$09
1713   1C31 BD C3 32    				lda			L32c3, x
1714   1C34 85 32       				sta			$32
1715   1C36 A6 93       				ldx			$93
1716   1C38 BD 14 36    				lda			L3614, x
1717   1C3B 18          				clc
1718   1C3C 65 66       				adc			$66
1719   1C3E 85 0E       				sta			$0e
1720   1C40 A5 67       				lda			$67
1721   1C42 69 00       				adc			#$00
1722   1C44 85 0F       				sta			$0f
1723   1C46 20 94 1B    				jsr			L1b94
1724   1C49 A5 3E       				lda			$3e
1725   1C4B 29 BF       				and			#$bf
1726   1C4D 09 20       				ora			#$20
1727   1C4F 85 3E       				sta			$3e
1728   1C51 A9 58       				lda			#$58
1729   1C53 85 6B       				sta			$6b
1730   1C55 60          				rts
1731   1C56             L1c56:
1732   1C56 A5 3E       				lda			$3e
1733   1C58 29 20       				and			#$20
1734   1C5A F0 35       				beq			L1c91
1735   1C5C C6 6B       				dec			$6b
1736   1C5E 10 31       				bpl			L1c91
1737   1C60 A9 58       				lda			#$58
1738   1C62 85 6B       				sta			$6b
1739   1C64 20 3E 2A    				jsr			L2a3e
1740   1C67 B0 28       				bcs			L1c91
1741   1C69 20 6A 2A    				jsr			L2a6a
1742   1C6C 20 7E 2A    				jsr			L2a7e
1743   1C6F A5 B4       				lda			$b4
1744   1C71 8D 50 03    				sta			L0350
1745   1C74 A5 B5       				lda			$b5
1746   1C76 8D 51 03    				sta			L0351
1747   1C79 A0 00       				ldy			#$00
1748   1C7B 20 70 29    				jsr			L2970
1749   1C7E 20 1E 2A    				jsr			L2a1e
1750   1C81 B0 0E       				bcs			L1c91
1751   1C83 A9 00       				lda			#$00
1752   1C85 85 B8       				sta			$b8
1753   1C87 85 B3       				sta			$b3
1754   1C89 A5 3E       				lda			$3e
1755   1C8B 29 DF       				and			#$df
1756   1C8D 09 40       				ora			#$40
1757   1C8F 85 3E       				sta			$3e
1758   1C91             L1c91:
1759   1C91 60          				rts
1760   1C92             L1c92:
1761   1C92 20 99 1C    				jsr			L1c99
1762   1C95 20 BD 1C    				jsr			L1cbd
1763   1C98 60          				rts
1764   1C99             L1c99:
1765   1C99 AD 52 02    				lda			L0252
1766   1C9C 29 20       				and			#$20
1767   1C9E D0 08       				bne			L1ca8
1768   1CA0 A9 50       				lda			#$50
1769   1CA2 85 32       				sta			$32
1770   1CA4 20 75 1B    				jsr			L1b75
1771   1CA7 60          				rts
1772   1CA8             L1ca8:
1773   1CA8 A5 6A       				lda			$6a
1774   1CAA 29 01       				and			#$01
1775   1CAC F0 0E       				beq			L1cbc
1776   1CAE A9 0C       				lda			#$0c
1777   1CB0 38          				sec
1778   1CB1 E5 76       				sbc			$76
1779   1CB3 10 02       				bpl			L1cb7
1780   1CB5 A9 00       				lda			#$00
1781   1CB7             L1cb7:
1782   1CB7 85 0A       				sta			$0a
1783   1CB9 20 E8 1B    				jsr			L1be8
1784   1CBC             L1cbc:
1785   1CBC 60          				rts
1786   1CBD             L1cbd:
1787   1CBD AD 62 02    				lda			L0262
1788   1CC0 29 20       				and			#$20
1789   1CC2 D0 0F       				bne			L1cd3
1790   1CC4 A9 60       				lda			#$60
1791   1CC6 85 32       				sta			$32
1792   1CC8 20 75 1B    				jsr			L1b75
1793   1CCB 24 05       				bit			$05
1794   1CCD 10 03       				bpl			L1cd2
1795   1CCF 20 ED 1C    				jsr			L1ced
1796   1CD2             L1cd2:
1797   1CD2 60          				rts
1798   1CD3             L1cd3:
1799   1CD3 A5 6A       				lda			$6a
1800   1CD5 29 01       				and			#$01
1801   1CD7 D0 F9       				bne			L1cd2
1802   1CD9 A9 0B       				lda			#$0b
1803   1CDB 38          				sec
1804   1CDC E5 76       				sbc			$76
1805   1CDE 10 02       				bpl			L1ce2
1806   1CE0 A9 00       				lda			#$00
1807   1CE2             L1ce2:
1808   1CE2 85 0A       				sta			$0a
1809   1CE4 20 E8 1B    				jsr			L1be8
1810   1CE7 A9 03       				lda			#$03
1811   1CE9 8D 00 01    				sta			L0100
1812   1CEC 60          				rts
1813   1CED             L1ced:
1814   1CED AD 5B 02    				lda			L025b
1815   1CF0 D0 72       				bne			L1d64
1816   1CF2 A5 05       				lda			$05
1817   1CF4 29 18       				and			#$18
1818   1CF6 F0 6D       				beq			L1d65
1819   1CF8 24 3E       				bit			$3e
1820   1CFA 30 69       				bmi			L1d65
1821   1CFC 20 39 2E    				jsr			L2e39
1822   1CFF 29 40       				and			#$40
1823   1D01 F0 08       				beq			L1d0b
1824   1D03 A5 85       				lda			$85
1825   1D05 29 0F       				and			#$0f
1826   1D07 C9 0F       				cmp			#$0f
1827   1D09 D0 5A       				bne			L1d65
1828   1D0B             L1d0b:
1829   1D0B A5 0E       				lda			$0e
1830   1D0D 18          				clc
1831   1D0E 69 C0       				adc			#$c0
1832   1D10 85 66       				sta			$66
1833   1D12 A5 0F       				lda			$0f
1834   1D14 69 FF       				adc			#$ff
1835   1D16 85 67       				sta			$67
1836   1D18 A5 3D       				lda			$3d
1837   1D1A 0A          				asl			a
1838   1D1B AA          				tax
1839   1D1C BC DD 32    				ldy			L32dd, x
1840   1D1F B1 66       				lda			($66), y
1841   1D21 C9 20       				cmp			#$20
1842   1D23 D0 3F       				bne			L1d64
1843   1D25 E8          				inx
1844   1D26 BC DD 32    				ldy			L32dd, x
1845   1D29 B1 66       				lda			($66), y
1846   1D2B C9 20       				cmp			#$20
1847   1D2D D0 35       				bne			L1d64
1848   1D2F 98          				tya
1849   1D30 18          				clc
1850   1D31 65 66       				adc			$66
1851   1D33 85 0E       				sta			$0e
1852   1D35 A9 00       				lda			#$00
1853   1D37 85 08       				sta			$08
1854   1D39 65 67       				adc			$67
1855   1D3B 85 0F       				sta			$0f
1856   1D3D A5 09       				lda			$09
1857   1D3F 29 18       				and			#$18
1858   1D41 09 60       				ora			#$60
1859   1D43 85 09       				sta			$09
1860   1D45 A6 C3       				ldx			$c3
1861   1D47 A9 01       				lda			#$01
1862   1D49 E0 04       				cpx			#$04
1863   1D4B B0 03       				bcs			L1d50
1864   1D4D BD E5 32    				lda			L32e5, x
1865   1D50             L1d50:
1866   1D50 09 80       				ora			#$80
1867   1D52 85 0A       				sta			$0a
1868   1D54 A0 70       				ldy			#$70
1869   1D56 20 96 1B    				jsr			L1b96
1870   1D59 A9 01       				lda			#$01
1871   1D5B 8D 5B 02    				sta			L025b
1872   1D5E A9 00       				lda			#$00
1873   1D60 85 65       				sta			$65
1874   1D62 85 A8       				sta			$a8
1875   1D64             L1d64:
1876   1D64 60          				rts
1877   1D65             L1d65:
1878   1D65 2C 00 01    				bit			L0100
1879   1D68 30 FA       				bmi			L1d64
1880   1D6A CE 00 01    				dec			L0100
1881   1D6D 4C 0B 1D    				jmp			L1d0b
1882   1D70             L1d70:
1883   1D70 A6 2F       				ldx			$2f
1884   1D72 E4 B1       				cpx			$b1
1885   1D74 B0 1A       				bcs			L1d90
1886   1D76 A5 3E       				lda			$3e
1887   1D78 29 10       				and			#$10
1888   1D7A D0 06       				bne			L1d82
1889   1D7C 20 84 28    				jsr			L2884
1890   1D7F 20 9C 24    				jsr			L249c
1891   1D82             L1d82:
1892   1D82 A5 2F       				lda			$2f
1893   1D84 F0 0D       				beq			L1d93
1894   1D86 C5 B1       				cmp			$b1
1895   1D88 F0 06       				beq			L1d90
1896   1D8A 90 04       				bcc			L1d90
1897   1D8C A5 B1       				lda			$b1
1898   1D8E 85 2F       				sta			$2f
1899   1D90             L1d90:
1900   1D90 20 65 1B    				jsr			L1b65
1901   1D93             L1d93:
1902   1D93 C6 68       				dec			$68
1903   1D95 30 01       				bmi			L1d98
1904   1D97 60          				rts
1905   1D98             L1d98:
1906   1D98 A9 01       				lda			#$01
1907   1D9A 85 68       				sta			$68
1908   1D9C             L1d9c:
1909   1D9C 24 30       				bit			$30
1910   1D9E 10 FC       				bpl			L1d9c
1911   1DA0 A5 30       				lda			$30
1912   1DA2 29 7F       				and			#$7f
1913   1DA4 85 30       				sta			$30
1914   1DA6 60          				rts
1915   1DA7             L1da7:
1916   1DA7 AE 5B 02    				ldx			L025b
1917   1DAA F0 05       				beq			L1db1
1918   1DAC A9 70       				lda			#$70
1919   1DAE 20 69 1B    				jsr			L1b69
1920   1DB1             L1db1:
1921   1DB1 60          				rts
1922   1DB2             L1db2:
1923   1DB2 A5 1C       				lda			$1c
1924   1DB4 F0 48       				beq			L1dfe
1925   1DB6 20 D2 1D    				jsr			L1dd2
1926   1DB9 90 02       				bcc			L1dbd
1927   1DBB 85 1C       				sta			$1c
1928   1DBD             L1dbd:
1929   1DBD 60          				rts
1930   1DBE             L1dbe:
1931   1DBE A5 A7       				lda			$a7
1932   1DC0 29 04       				and			#$04
1933   1DC2 0A          				asl			a
1934   1DC3 0A          				asl			a
1935   1DC4 85 00       				sta			$00
1936   1DC6 A5 1D       				lda			$1d
1937   1DC8 85 01       				sta			$01
1938   1DCA 20 D8 1D    				jsr			L1dd8
1939   1DCD 90 02       				bcc			L1dd1
1940   1DCF 85 1D       				sta			$1d
1941   1DD1             L1dd1:
1942   1DD1 60          				rts
1943   1DD2             L1dd2:
1944   1DD2 85 01       				sta			$01
1945   1DD4 A9 00       				lda			#$00
1946   1DD6 85 00       				sta			$00
1947   1DD8             L1dd8:
1948   1DD8 A5 01       				lda			$01
1949   1DDA 85 41       				sta			$41
1950   1DDC 85 42       				sta			$42
1951   1DDE E6 41       				inc			$41
1952   1DE0 C6 42       				dec			$42
1953   1DE2 A5 00       				lda			$00
1954   1DE4 A2 0A       				ldx			#$0a
1955   1DE6             L1de6:
1956   1DE6 C5 01       				cmp			$01
1957   1DE8 F0 14       				beq			L1dfe
1958   1DEA C5 41       				cmp			$41
1959   1DEC F0 10       				beq			L1dfe
1960   1DEE C5 42       				cmp			$42
1961   1DF0 F0 0C       				beq			L1dfe
1962   1DF2 A9 18       				lda			#$18
1963   1DF4 18          				clc
1964   1DF5 65 00       				adc			$00
1965   1DF7 85 00       				sta			$00
1966   1DF9 CA          				dex
1967   1DFA D0 EA       				bne			L1de6
1968   1DFC 18          				clc
1969   1DFD 60          				rts
1970   1DFE             L1dfe:
1971   1DFE A5 00       				lda			$00
1972   1E00             L1e00:
1973   1E00 38          				sec
1974   1E01 60          				rts
1975   1E02             L1e02:
1976   1E02 A5 31       				lda			$31
1977   1E04 F0 01       				beq			L1e07
1978   1E06 60          				rts
1979   1E07             L1e07:
1980   1E07 A5 34       				lda			$34
1981   1E09 29 10       				and			#$10
1982   1E0B D0 01       				bne			L1e0e
1983   1E0D 60          				rts
1984   1E0E             L1e0e:
1985   1E0E A9 0C       				lda			#$0c
1986   1E10 85 A4       				sta			$a4
1987   1E12 A9 01       				lda			#$01
1988   1E14 85 31       				sta			$31
1989   1E16 A5 1A       				lda			$1a
1990   1E18 29 03       				and			#$03
1991   1E1A AA          				tax
1992   1E1B 0A          				asl			a
1993   1E1C 0A          				asl			a
1994   1E1D 0A          				asl			a
1995   1E1E             L1e1e:
1996   1E1E 0A          				asl			a
1997   1E1F 09 40       				ora			#$40
1998   1E21 85 00       				sta			$00
1999   1E23 A5 1A       				lda			$1a
2000   1E25 29 0F       				and			#$0f
2001   1E27 05 00       				ora			$00
2002   1E29 85 1A       				sta			$1a
2003   1E2B BD 05 33    				lda			L3305, x
2004   1E2E 85 24       				sta			$24
2005   1E30 BD 09 33    				lda			L3309, x
2006   1E33 85 25       				sta			$25
2007   1E35 A5 1C       				lda			$1c
2008   1E37 85 22       				sta			$22
2009   1E39 A5 1D       				lda			$1d
2010   1E3B 85 23       				sta			$23
2011   1E3D 60          				rts
2012   1E3E             L1e3e:
2013   1E3E A5 1D       				lda			$1d
2014   1E40 85 18       				sta			$18
2015   1E42 A5 1C       				lda			$1c
2016   1E44 4C 4D 1E    				jmp			L1e4d
2017   1E47             L1e47:
2018   1E47 A5 23       				lda			$23
2019   1E49 85 18       				sta			$18
2020   1E4B A5 22       				lda			$22
2021   1E4D             L1e4d:
2022   1E4D 18          				clc
2023   1E4E AA          				tax
2024   1E4F 69 10       				adc			#$10
2025   1E51 4A          				lsr			a
2026   1E52 4A          				lsr			a
2027   1E53 4A          				lsr			a
2028   1E54 85 66       				sta			$66
2029   1E56 8A          				txa
2030   1E57 29 07       				and			#$07
2031   1E59 C9 04       				cmp			#$04
2032   1E5B 90 02       				bcc			L1e5f
2033   1E5D E6 66       				inc			$66
2034   1E5F             L1e5f:
2035   1E5F A5 18       				lda			$18
2036   1E61 18          				clc
2037   1E62 69 08       				adc			#$08
2038   1E64 0A          				asl			a
2039   1E65 26 67       				rol			$67
2040   1E67 0A          				asl			a
2041   1E68 26 67       				rol			$67
2042   1E6A 29 E0       				and			#$e0
2043   1E6C 05 66       				ora			$66
2044   1E6E 49 FF       				eor			#$ff
2045   1E70 85 66       				sta			$66
2046   1E72 A5 67       				lda			$67
2047   1E74 49 FF       				eor			#$ff
2048   1E76 29 03       				and			#$03
2049   1E78 09 40       				ora			#$40
2050   1E7A 85 67       				sta			$67
2051   1E7C A5 A7       				lda			$a7
2052   1E7E 29 04       				and			#$04
2053   1E80 F0 10       				beq			L1e92
2054   1E82 A5 18       				lda			$18
2055   1E84 C9 D8       				cmp			#$d8
2056   1E86 90 0A       				bcc			L1e92
2057   1E88 A5 66       				lda			$66
2058   1E8A 29 7F       				and			#$7f
2059   1E8C 85 66       				sta			$66
2060   1E8E A9 40       				lda			#$40
2061   1E90 85 67       				sta			$67
2062   1E92             L1e92:
2063   1E92 60          				rts
2064   1E93             L1e93:
2065   1E93 A5 1E       				lda			$1e
2066   1E95 F0 0B       				beq			L1ea2
2067   1E97 18          				clc
2068   1E98 65 1C       				adc			$1c
2069   1E9A 69 00       				adc			#$00
2070   1E9C 20 DA 1E    				jsr			L1eda
2071   1E9F 85 1C       				sta			$1c
2072   1EA1 60          				rts
2073   1EA2             L1ea2:
2074   1EA2 A5 1F       				lda			$1f
2075   1EA4 D0 01       				bne			L1ea7
2076   1EA6 60          				rts
2077   1EA7             L1ea7:
2078   1EA7 18          				clc
2079   1EA8 65 1D       				adc			$1d
2080   1EAA 69 00       				adc			#$00
2081   1EAC 20 D0 1E    				jsr			L1ed0
2082   1EAF 85 1D       				sta			$1d
2083   1EB1 60          				rts
2084   1EB2             L1eb2:
2085   1EB2 A5 24       				lda			$24
2086   1EB4 F0 0A       				beq			L1ec0
2087   1EB6 18          				clc
2088   1EB7 65 22       				adc			$22
2089   1EB9 69 00       				adc			#$00
2090   1EBB 20 10 1F    				jsr			L1f10
2091   1EBE 85 22       				sta			$22
2092   1EC0             L1ec0:
2093   1EC0 A5 25       				lda			$25
2094   1EC2 D0 01       				bne			L1ec5
2095   1EC4 60          				rts
2096   1EC5             L1ec5:
2097   1EC5 18          				clc
2098   1EC6 65 23       				adc			$23
2099   1EC8 69 00       				adc			#$00
2100   1ECA 20 FB 1E    				jsr			L1efb
2101   1ECD 85 23       				sta			$23
2102   1ECF 60          				rts
2103   1ED0             L1ed0:
2104   1ED0 85 00       				sta			$00
2105   1ED2 A5 A7       				lda			$a7
2106   1ED4 29 04       				and			#$04
2107   1ED6 D0 11       				bne			L1ee9
2108   1ED8 A5 00       				lda			$00
2109   1EDA             L1eda:
2110   1EDA C9 FC       				cmp			#$fc
2111   1EDC B0 05       				bcs			L1ee3
2112   1EDE C9 D8       				cmp			#$d8
2113   1EE0 B0 04       				bcs			L1ee6
2114   1EE2 60          				rts
2115   1EE3             L1ee3:
2116   1EE3 A9 00       				lda			#$00
2117   1EE5 60          				rts
2118   1EE6             L1ee6:
2119   1EE6 A9 D8       				lda			#$d8
2120   1EE8 60          				rts
2121   1EE9             L1ee9:
2122   1EE9 A5 00       				lda			$00
2123   1EEB C9 10       				cmp			#$10
2124   1EED 90 05       				bcc			L1ef4
2125   1EEF C9 E8       				cmp			#$e8
2126   1EF1 B0 05       				bcs			L1ef8
2127   1EF3 60          				rts
2128   1EF4             L1ef4:
2129   1EF4 A9 10       				lda			#$10
2130   1EF6 38          				sec
2131   1EF7 60          				rts
2132   1EF8             L1ef8:
2133   1EF8 A9 E8       				lda			#$e8
2134   1EFA 60          				rts
2135   1EFB             L1efb:
2136   1EFB 85 00       				sta			$00
2137   1EFD A5 A7       				lda			$a7
2138   1EFF 29 04       				and			#$04
2139   1F01 F0 0B       				beq			L1f0e
2140   1F03 A5 00       				lda			$00
2141   1F05 C9 10       				cmp			#$10
2142   1F07 90 10       				bcc			L1f19
2143   1F09 C9 EC       				cmp			#$ec
2144   1F0B B0 0C       				bcs			L1f19
2145   1F0D 60          				rts
2146   1F0E             L1f0e:
2147   1F0E A5 00       				lda			$00
2148   1F10             L1f10:
2149   1F10 C9 FE       				cmp			#$fe
2150   1F12 B0 05       				bcs			L1f19
2151   1F14 C9 DC       				cmp			#$dc
2152   1F16 B0 01       				bcs			L1f19
2153   1F18 60          				rts
2154   1F19             L1f19:
2155   1F19 85 00       				sta			$00
2156   1F1B A5 1A       				lda			$1a
2157   1F1D 09 F0       				ora			#$f0
2158   1F1F 85 1A       				sta			$1a
2159   1F21 A9 00       				lda			#$00
2160   1F23 85 31       				sta			$31
2161   1F25 A5 00       				lda			$00
2162   1F27 60          				rts
2163   1F28             L1f28:
2164   1F28 A9 50       				lda			#$50
2165   1F2A 20 69 22    				jsr			L2269
2166   1F2D A9 00       				lda			#$00
2167   1F2F 8D 01 52    				sta			$5201								; Audio2
2168   1F32 20 9F 1F    				jsr			L1f9f
2169   1F35 A9 EE       				lda			#$ee
2170   1F37 8D 00 51    				sta			$5100
2171   1F3A A5 1A       				lda			$1a
2172   1F3C 29 02       				and			#$02
2173   1F3E D0 0A       				bne			L1f4a
2174   1F40 A5 1C       				lda			$1c
2175   1F42 18          				clc
2176   1F43 69 08       				adc			#$08
2177   1F45 85 1C       				sta			$1c
2178   1F47 4C 51 1F    				jmp			L1f51
2179   1F4A             L1f4a:
2180   1F4A A5 1D       				lda			$1d
2181   1F4C 18          				clc
2182   1F4D 69 08       				adc			#$08
2183   1F4F 85 1D       				sta			$1d
2184   1F51             L1f51:
2185   1F51 A5 1A       				lda			$1a
2186   1F53 09 0F       				ora			#$0f
2187   1F55 85 1A       				sta			$1a
2188   1F57 A5 A7       				lda			$a7
2189   1F59 09 20       				ora			#$20									; Set bit 5
2190   1F5B 85 A7       				sta			$a7
2191   1F5D A9 F8       				lda			#$f8
2192   1F5F 85 61       				sta			$61
2193   1F61             L1f61:
2194   1F61 8D 00 51    				sta			$5100
2195   1F64 A9 30       				lda			#$30
2196   1F66 85 40       				sta			$40
2197   1F68             L1f68:
2198   1F68 C6 3F       				dec			$3f
2199   1F6A D0 FC       				bne			L1f68
2200   1F6C C6 40       				dec			$40
2201   1F6E D0 F8       				bne			L1f68
2202   1F70 E6 61       				inc			$61
2203   1F72 A5 61       				lda			$61
2204   1F74 C9 FA       				cmp			#$fa
2205   1F76 B0 02       				bcs			L1f7a
2206   1F78 A5 61       				lda			$61
2207   1F7A             L1f7a:
2208   1F7A C9 FE       				cmp			#$fe
2209   1F7C D0 E3       				bne			L1f61
2210   1F7E 20 59 2D    				jsr			L2d59
2211   1F81 A9 10       				lda			#$10
2212   1F83 20 69 22    				jsr			L2269
2213   1F86 A5 30       				lda			$30
2214   1F88 09 02       				ora			#$02
2215   1F8A 85 30       				sta			$30
2216   1F8C A5 1A       				lda			$1a
2217   1F8E 09 F0       				ora			#$f0
2218   1F90 85 1A       				sta			$1a
2219   1F92 8D 00 51    				sta			$5100
2220   1F95 20 56 2D    				jsr			L2d56
2221   1F98 A5 A7       				lda			$a7
2222   1F9A 29 DF       				and			#$df									; Clear bit 5
2223   1F9C 85 A7       				sta			$a7
2224   1F9E 60          				rts
2225   1F9F             L1f9f:
2226   1F9F 24 A7       				bit			$a7
2227   1FA1 10 05       				bpl			L1fa8
2228   1FA3 A9 70       				lda			#$70
2229   1FA5 8D 00 52    				sta			$5200								; Audio1
2230   1FA8             L1fa8:
2231   1FA8 60          				rts
2232   1FA9 A5 31       				lda			$31
2233   1FAB D0 01       				bne			L1fae
2234   1FAD 60          				rts
2235   1FAE             L1fae:
2236   1FAE 20 47 1E    				jsr			L1e47
2237   1FB1 A0 00       				ldy			#$00
2238   1FB3 B1 66       				lda			($66), y
2239   1FB5 C9 E8       				cmp			#$e8
2240   1FB7 F0 04       				beq			L1fbd
2241   1FB9 C9 20       				cmp			#$20
2242   1FBB D0 04       				bne			L1fc1
2243   1FBD             L1fbd:
2244   1FBD 20 B2 1E    				jsr			L1eb2
2245   1FC0 60          				rts
2246   1FC1             L1fc1:
2247   1FC1 20 DB 1F    				jsr			L1fdb
2248   1FC4 B0 04       				bcs			L1fca
2249   1FC6 A9 21       				lda			#$21
2250   1FC8 91 66       				sta			($66), y
2251   1FCA             L1fca:
2252   1FCA A5 1A       				lda			$1a
2253   1FCC 09 F0       				ora			#$f0
2254   1FCE 85 1A       				sta			$1a
2255   1FD0 A5 30       				lda			$30
2256   1FD2 09 04       				ora			#$04
2257   1FD4 85 30       				sta			$30
2258   1FD6 A9 00       				lda			#$00
2259   1FD8 85 31       				sta			$31
2260   1FDA 60          				rts
2261   1FDB             L1fdb:
2262   1FDB A2 0B       				ldx			#$0b
2263   1FDD             L1fdd:
2264   1FDD DD F9 32    				cmp			L32f9, x
2265   1FE0 F0 05       				beq			L1fe7
2266   1FE2 CA          				dex
2267   1FE3 10 F8       				bpl			L1fdd
2268   1FE5 18          				clc
2269   1FE6 60          				rts
2270   1FE7             L1fe7:
2271   1FE7 38          				sec
2272   1FE8 60          				rts
2273   1FE9             L1fe9:
2274   1FE9 A9 00       				lda			#$00
2275   1FEB 85 03       				sta			$03
2276   1FED A5 34       				lda			$34
2277   1FEF AA          				tax
2278   1FF0 29 20       				and			#$20
2279   1FF2 D0 16       				bne			L200a
2280   1FF4 E6 03       				inc			$03
2281   1FF6 8A          				txa
2282   1FF7 29 40       				and			#$40
2283   1FF9 D0 0F       				bne			L200a
2284   1FFB E6 03       				inc			$03
2285   1FFD 8A          				txa
2286   1FFE 29 04       				and			#$04
2287   2000 D0 08       				bne			L200a
2288   2002             L2002:
2289   2002 E6 03       				inc			$03
2290   2004 8A          				txa
2291   2005 29 08       				and			#$08
2292   2007 D0 01       				bne			L200a
2293   2009 60          				rts
2294   200A             L200a:
2295   200A A5 1A       				lda			$1a
2296   200C 29 03       				and			#$03
2297   200E C5 03       				cmp			$03
2298   2010 F0 38       				beq			L204a
2299   2012 18          				clc
2300   2013 65 03       				adc			$03
2301   2015 C9 01       				cmp			#$01
2302   2017 F0 47       				beq			L2060
2303   2019 C9 05       				cmp			#$05
2304   201B F0 43       				beq			L2060
2305   201D A5 03       				lda			$03
2306   201F 29 02       				and			#$02
2307   2021 D0 06       				bne			L2029
2308   2023 20 B2 1D    				jsr			L1db2
2309   2026 B0 07       				bcs			L202f
2310   2028 60          				rts
2311   2029             L2029:
2312   2029 20 BE 1D    				jsr			L1dbe
2313   202C B0 01       				bcs			L202f
2314   202E 60          				rts
2315   202F             L202f:
2316   202F A5 1A       				lda			$1a
2317   2031 29 F0       				and			#$f0
2318   2033 05 03       				ora			$03
2319   2035 85 1A       				sta			$1a
2320   2037 A5 1C       				lda			$1c
2321   2039 29 F8       				and			#$f8
2322   203B 85 1C       				sta			$1c
2323   203D A5 1D       				lda			$1d
2324   203F 29 F8       				and			#$f8
2325   2041 85 1D       				sta			$1d
2326   2043 18          				clc
2327   2044 26 85       				rol			$85
2328   2046 20 9F 20    				jsr			L209f
2329   2049 60          				rts
2330   204A             L204a:
2331   204A C6 6E       				dec			$6e
2332   204C 30 01       				bmi			L204f
2333   204E 60          				rts
2334   204F             L204f:
2335   204F E6 6F       				inc			$6f
2336   2051 A5 6F       				lda			$6f
2337   2053 C9 08       				cmp			#$08
2338   2055 90 05       				bcc			L205c
2339   2057 A9 07       				lda			#$07
2340   2059 85 6F       				sta			$6f
2341   205B 60          				rts
2342   205C             L205c:
2343   205C 20 9A 20    				jsr			L209a
2344   205F 60          				rts
2345   2060             L2060:
2346   2060 C6 6E       				dec			$6e
2347   2062 C6 6E       				dec			$6e
2348   2064 C6 6E       				dec			$6e
2349   2066 30 01       				bmi			L2069
2350   2068 60          				rts
2351   2069             L2069:
2352   2069 C6 6F       				dec			$6f
2353   206B 30 06       				bmi			L2073
2354   206D A5 6F       				lda			$6f
2355   206F C9 04       				cmp			#$04
2356   2071 B0 23       				bcs			L2096
2357   2073             L2073:
2358   2073 A9 03       				lda			#$03
2359   2075 85 6F       				sta			$6f
2360   2077 A5 1F       				lda			$1f
2361   2079 49 FF       				eor			#$ff
2362   207B 85 1F       				sta			$1f
2363   207D A5 1E       				lda			$1e
2364   207F 49 FF       				eor			#$ff
2365   2081 85 1E       				sta			$1e
2366   2083 A5 1A       				lda			$1a
2367   2085 49 01       				eor			#$01
2368   2087 29 03       				and			#$03
2369   2089 85 00       				sta			$00
2370   208B A5 1A       				lda			$1a
2371   208D 29 F0       				and			#$f0
2372   208F 05 00       				ora			$00
2373   2091 85 1A       				sta			$1a
2374   2093 38          				sec
2375   2094 26 85       				rol			$85
2376   2096             L2096:
2377   2096 20 9F 20    				jsr			L209f
2378   2099 60          				rts
2379   209A             L209a:
2380   209A 24 20       				bit			$20
2381   209C 10 01       				bpl			L209f
2382   209E 60          				rts
2383   209F             L209f:
2384   209F A6 6F       				ldx			$6f
2385   20A1 BD 0D 33    				lda			L330d, x
2386   20A4 85 6E       				sta			$6e
2387   20A6 BD 15 33    				lda			L3315, x
2388   20A9 85 20       				sta			$20
2389   20AB BD 1D 33    				lda			L331d, x
2390   20AE 85 00       				sta			$00
2391   20B0 A9 00       				lda			#$00
2392   20B2 85 1F       				sta			$1f
2393   20B4 85 1E       				sta			$1e
2394   20B6 85 21       				sta			$21
2395   20B8 A5 1A       				lda			$1a
2396   20BA 29 03       				and			#$03
2397   20BC AA          				tax
2398   20BD BD 25 33    				lda			L3325, x
2399   20C0 45 00       				eor			$00
2400   20C2 E0 02       				cpx			#$02
2401   20C4 B0 03       				bcs			L20c9
2402   20C6 85 1F       				sta			$1f
2403   20C8 60          				rts
2404   20C9             L20c9:
2405   20C9 85 1E       				sta			$1e
2406   20CB 60          				rts
2407   20CC             L20cc:
2408   20CC C6 21       				dec			$21
2409   20CE 30 01       				bmi			L20d1
2410   20D0 60          				rts
2411   20D1             L20d1:
2412   20D1 A5 20       				lda			$20
2413   20D3 29 7F       				and			#$7f
2414   20D5 85 21       				sta			$21
2415   20D7 A5 1C       				lda			$1c
2416   20D9 85 B7       				sta			$b7
2417   20DB A5 1D       				lda			$1d
2418   20DD 85 B6       				sta			$b6
2419   20DF 20 93 1E    				jsr			L1e93
2420   20E2 20 3E 1E    				jsr			L1e3e
2421   20E5 A0 00       				ldy			#$00
2422   20E7 B1 66       				lda			($66), y
2423   20E9 85 48       				sta			$48
2424   20EB C9 20       				cmp			#$20
2425   20ED F0 59       				beq			L2148
2426   20EF C9 21       				cmp			#$21
2427   20F1 F0 55       				beq			L2148
2428   20F3 C9 E8       				cmp			#$e8
2429   20F5 F0 5A       				beq			L2151
2430   20F7 20 DB 1F    				jsr			L1fdb
2431   20FA B0 15       				bcs			L2111
2432   20FC A5 48       				lda			$48
2433   20FE 29 1F       				and			#$1f
2434   2100 F0 46       				beq			L2148
2435   2102 C9 09       				cmp			#$09
2436   2104 F0 42       				beq			L2148
2437   2106 C9 11       				cmp			#$11
2438   2108 F0 3E       				beq			L2148
2439   210A C9 18       				cmp			#$18
2440   210C F0 3A       				beq			L2148
2441   210E 4C 28 1F    				jmp			L1f28
2442   2111             L2111:
2443   2111 A9 80       				lda			#$80
2444   2113 85 20       				sta			$20
2445   2115 A5 1A       				lda			$1a
2446   2117 29 03       				and			#$03
2447   2119 C9 02       				cmp			#$02
2448   211B D0 0C       				bne			L2129
2449   211D A5 B7       				lda			$b7
2450   211F 29 F8       				and			#$f8
2451   2121 18          				clc
2452   2122 69 08       				adc			#$08
2453   2124 85 1C       				sta			$1c
2454   2126 4C 3D 21    				jmp			L213d
2455   2129             L2129:
2456   2129 A5 B7       				lda			$b7
2457   212B 24 1E       				bit			$1e
2458   212D F0 04       				beq			L2133
2459   212F 29 F8       				and			#$f8
2460   2131 85 1C       				sta			$1c
2461   2133             L2133:
2462   2133 A5 B6       				lda			$b6
2463   2135 24 1F       				bit			$1f
2464   2137 F0 04       				beq			L213d
2465   2139 29 F8       				and			#$f8
2466   213B 85 1D       				sta			$1d
2467   213D             L213d:
2468   213D A9 00       				lda			#$00
2469   213F 85 1E       				sta			$1e
2470   2141 85 1F       				sta			$1f
2471   2143 85 6F       				sta			$6f
2472   2145 20 3E 1E    				jsr			L1e3e
2473   2148             L2148:
2474   2148 A5 66       				lda			$66
2475   214A 85 2A       				sta			$2a
2476   214C A5 67       				lda			$67
2477   214E 85 2B       				sta			$2b
2478   2150 60          				rts
2479   2151             L2151:
2480   2151 85 70       				sta			$70
2481   2153 A9 20       				lda			#$20
2482   2155 91 66       				sta			($66), y
2483   2157 4C 48 21    				jmp			L2148
2484   215A             L215a:
2485   215A A5 1B       				lda			$1b
2486   215C F0 25       				beq			L2183
2487   215E C9 60       				cmp			#$60
2488   2160 90 04       				bcc			L2166
2489   2162 C9 80       				cmp			#$80
2490   2164 90 1D       				bcc			L2183
2491   2166             L2166:
2492   2166 A5 BF       				lda			$bf
2493   2168 A8          				tay
2494   2169 24 1B       				bit			$1b
2495   216B 30 07       				bmi			L2174
2496   216D 70 05       				bvs			L2174
2497   216F A5 C3       				lda			$c3
2498   2171 4C 77 21    				jmp			L2177
2499   2174             L2174:
2500   2174 20 9C 21    				jsr			L219c
2501   2177             L2177:
2502   2177 85 00       				sta			$00
2503   2179 A5 BF       				lda			$bf
2504   217B 29 02       				and			#$02
2505   217D A8          				tay
2506   217E A5 00       				lda			$00
2507   2180 20 7E 22    				jsr			L227e
2508   2183             L2183:
2509   2183 A9 00       				lda			#$00
2510   2185 85 1B       				sta			$1b
2511   2187 A5 70       				lda			$70
2512   2189 F0 10       				beq			L219b
2513   218B A5 BF       				lda			$bf
2514   218D 29 02       				and			#$02
2515   218F A8          				tay
2516   2190 A9 02       				lda			#$02
2517   2192 20 7E 22    				jsr			L227e
2518   2195 A9 00       				lda			#$00
2519   2197 85 70       				sta			$70
2520   2199 C6 74       				dec			$74
2521   219B             L219b:
2522   219B 60          				rts
2523   219C             L219c:
2524   219C 86 01       				stx			$01
2525   219E A5 B1       				lda			$b1
2526   21A0 D0 06       				bne			L21a8
2527   21A2 A5 A7       				lda			$a7
2528   21A4 09 10       				ora			#$10
2529   21A6 85 A7       				sta			$a7
2530   21A8             L21a8:
2531   21A8 A9 00       				lda			#$00
2532   21AA 8D 01 52    				sta			$5201								; Audio2
2533   21AD 8D 54 02    				sta			L0254
2534   21B0 8D 64 02    				sta			L0264
2535   21B3 AD 56 02    				lda			L0256
2536   21B6 85 0E       				sta			$0e
2537   21B8 AD 57 02    				lda			L0257
2538   21BB 85 0F       				sta			$0f
2539   21BD A9 01       				lda			#$01
2540   21BF 24 1B       				bit			$1b
2541   21C1 70 12       				bvs			L21d5
2542   21C3 AD 66 02    				lda			L0266
2543   21C6 85 0E       				sta			$0e
2544   21C8 AD 67 02    				lda			L0267
2545   21CB 85 0F       				sta			$0f
2546   21CD 20 39 2E    				jsr			L2e39
2547   21D0 29 03       				and			#$03
2548   21D2 18          				clc
2549   21D3 69 02       				adc			#$02
2550   21D5             L21d5:
2551   21D5 A0 00       				ldy			#$00
2552   21D7 85 00       				sta			$00
2553   21D9 B1 0E       				lda			($0e), y
2554   21DB 99 10 01    				sta			L0110, y
2555   21DE A5 A7       				lda			$a7
2556   21E0 29 04       				and			#$04
2557   21E2 F0 1D       				beq			L2201
2558   21E4 A9 30       				lda			#$30
2559   21E6 91 0E       				sta			($0e), y
2560   21E8 C8          				iny
2561   21E9 B1 0E       				lda			($0e), y
2562   21EB 99 10 01    				sta			L0110, y
2563   21EE A9 30       				lda			#$30
2564   21F0 91 0E       				sta			($0e), y
2565   21F2 C8          				iny
2566   21F3 B1 0E       				lda			($0e), y
2567   21F5 99 10 01    				sta			L0110, y
2568   21F8 A5 00       				lda			$00
2569   21FA 09 30       				ora			#$30
2570   21FC 91 0E       				sta			($0e), y
2571   21FE 4C 1B 22    				jmp			L221b
2572   2201             L2201:
2573   2201 A5 00       				lda			$00
2574   2203 09 30       				ora			#$30
2575   2205 91 0E       				sta			($0e), y
2576   2207 C8          				iny
2577   2208 B1 0E       				lda			($0e), y
2578   220A 99 10 01    				sta			L0110, y
2579   220D C8          				iny
2580   220E B1 0E       				lda			($0e), y
2581   2210 99 10 01    				sta			L0110, y
2582   2213 88          				dey
2583   2214 A9 30       				lda			#$30
2584   2216 91 0E       				sta			($0e), y
2585   2218 C8          				iny
2586   2219 91 0E       				sta			($0e), y
2587   221B             L221b:
2588   221B A5 00       				lda			$00
2589   221D 0A          				asl			a
2590   221E 0A          				asl			a
2591   221F 0A          				asl			a
2592   2220 0A          				asl			a
2593   2221 85 00       				sta			$00
2594   2223 20 3E 22    				jsr			L223e
2595   2226 20 3E 22    				jsr			L223e
2596   2229 A0 00       				ldy			#$00
2597   222B 20 37 22    				jsr			L2237
2598   222E 20 37 22    				jsr			L2237
2599   2231 20 37 22    				jsr			L2237
2600   2234 A5 00       				lda			$00
2601   2236 60          				rts
2602   2237             L2237:
2603   2237 B9 10 01    				lda			L0110, y
2604   223A 91 0E       				sta			($0e), y
2605   223C C8          				iny
2606   223D 60          				rts
2607   223E             L223e:
2608   223E 20 41 22    				jsr			L2241
2609   2241             L2241:
2610   2241 A2 00       				ldx			#$00
2611   2243 24 A7       				bit			$a7
2612   2245 10 05       				bpl			L224c
2613   2247 A9 90       				lda			#$90
2614   2249 8D 00 52    				sta			$5200								; Audio1
2615   224C             L224c:
2616   224C BD D2 33    				lda			L33d2, x
2617   224F 8D 01 52    				sta			$5201								; Audio2
2618   2252 A9 03       				lda			#$03
2619   2254 85 17       				sta			$17
2620   2256             L2256:
2621   2256 C6 16       				dec			$16
2622   2258 D0 FC       				bne			L2256
2623   225A C6 17       				dec			$17
2624   225C 10 F8       				bpl			L2256
2625   225E E8          				inx
2626   225F E0 09       				cpx			#$09
2627   2261 90 E9       				bcc			L224c
2628   2263 60          				rts
2629   2264             L2264:
2630   2264 25 A3       				and			$a3
2631   2266 4C 6B 22    				jmp			L226b
2632   2269             L2269:
2633   2269 05 A3       				ora			$a3
2634   226B             L226b:
2635   226B 85 A3       				sta			$a3
2636   226D 8D 00 52    				sta			$5200										; Audio1
2637   2270 60          				rts
2638   2271             
2639   2271             				;; Draw HI SCR
2640   2271             L2271:
2641   2271 A9 1A       				lda			#$1a										; HI SCR
2642   2273 20 00 2B    				jsr			L2b00										; Draw language string a
2643   2276 20 C9 22    				jsr			L22c9										; Draw BCD high score
2644   2279             
2645   2279 A0 04       				ldy			#$04
2646   227B 4C 92 22    				jmp			L2292
2647   227E             
2648   227E             L227e:
2649   227E F8          				sed
2650   227F 18          				clc
2651   2280 65 BD       				adc			$bd
2652   2282 85 BD       				sta			$bd
2653   2284 A5 BE       				lda			$be
2654   2286 69 00       				adc			#$00
2655   2288 85 BE       				sta			$be
2656   228A D8          				cld
2657   228B 98          				tya
2658   228C 48          				pha
2659   228D 20 D5 22    				jsr			L22d5
2660   2290 68          				pla
2661   2291 A8          				tay
2662   2292             
2663   2292             L2292:
2664   2292 A5 A7       				lda			$a7
2665   2294 29 04       				and			#$04
2666   2296 D0 16       				bne			L22ae
2667   2298             
2668   2298 B9 7D 3F    				lda			L3f7d, y
2669   229B 85 50       				sta			$50									; Screen loc lo
2670   229D C8          				iny
2671   229E B9 7D 3F    				lda			L3f7d, y
2672   22A1 85 51       				sta			$51									; Screen loc hi
2673   22A3             
2674   22A3 A0 04       				ldy			#$04									; 4(+1) digits
2675   22A5             L22a5:
2676   22A5 B9 10 01    				lda			L0110, y
2677   22A8 91 50       				sta			($50), y
2678   22AA 88          				dey
2679   22AB 10 F8       				bpl			L22a5
2680   22AD 60          				rts
2681   22AE             
2682   22AE             L22ae:
2683   22AE B9 83 3F    				lda			L3f83, y
2684   22B1 85 50       				sta			$50
2685   22B3 C8          				iny
2686   22B4 B9 83 3F    				lda			L3f83, y
2687   22B7 85 51       				sta			$51
2688   22B9 A2 00       				ldx			#$00
2689   22BB A0 04       				ldy			#$04
2690   22BD             L22bd:
2691   22BD BD 10 01    				lda			L0110, x
2692   22C0 91 50       				sta			($50), y
2693   22C2 E8          				inx
2694   22C3 88          				dey
2695   22C4 10 F7       				bpl			L22bd
2696   22C6 C6 50       				dec			$50
2697   22C8 60          				rts
2698   22C9             
2699   22C9             				;; Draw high score
2700   22C9             L22c9:
2701   22C9 A5 AF       				lda			$af									; High score hi
2702   22CB A0 00       				ldy			#$00
2703   22CD 20 E7 22    				jsr			L22e7								; BCD to chars
2704   22D0 A5 AE       				lda			$ae									; High score low
2705   22D2 4C DE 22    				jmp			L22de								; BCD + 0 to chars
2706   22D5             
2707   22D5             
2708   22D5             L22d5:
2709   22D5 A5 BE       				lda			$be									; ?? hi
2710   22D7 A0 00       				ldy			#$00
2711   22D9 20 E7 22    				jsr			L22e7								; BCD to chars
2712   22DC A5 BD       				lda			$bd									; ?? lo
2713   22DE             
2714   22DE             				; BCD + 0 to char buffer
2715   22DE             L22de:
2716   22DE 20 E7 22    				jsr			L22e7								; BCD to char buffer
2717   22E1 A9 30       				lda			#$30
2718   22E3 99 10 01    				sta			L0110, y							; Add zero
2719   22E6 60          				rts
2720   22E7             
2721   22E7             				;; BCD to char buffer
2722   22E7             L22e7:
2723   22E7 20 16 2E    				jsr			L2e16								; Split nybbles
2724   22EA 09 30       				ora			#$30									; BCD to char
2725   22EC 99 10 01    				sta			L0110, y							; Store Hi char
2726   22EF A5 52       				lda			$52									; Lo nybble
2727   22F1 09 30       				ora			#$30									; BCD to char
2728   22F3 C8          				iny
2729   22F4 99 10 01    				sta			L0110, y							; Store Lo char
2730   22F7 C8          				iny
2731   22F8 60          				rts
2732   22F9             
2733   22F9             				;; Draw player scores
2734   22F9             L22f9:
2735   22F9 20 0E 23    				jsr			L230e								; P1 score to chars
2736   22FC A0 00       				ldy			#$00									; Loc 0
2737   22FE 20 92 22    				jsr			L2292
2738   2301 20 09 23    				jsr			L2309								; P2 score to chars
2739   2304 A0 02       				ldy			#$02									; Loc 2
2740   2306 4C 92 22    				jmp			L2292
2741   2309             				;; And rts
2742   2309             
2743   2309             				;; P2 score to chars
2744   2309             L2309:
2745   2309 A2 01       				ldx			#$01
2746   230B 4C 10 23    				jmp			L2310
2747   230E             
2748   230E             				;; P1 score to chars
2749   230E             L230e:
2750   230E A2 00       				ldx			#$00
2751   2310             L2310:
2752   2310 B5 D2       				lda			$d2, x
2753   2312 A0 00       				ldy			#$00
2754   2314 20 E7 22    				jsr			L22e7								; BCD to char buffer
2755   2317 B5 D0       				lda			$d0, x
2756   2319 4C DE 22    				jmp			L22de								; BCD + 0 to char buffer
2757   231C             
2758   231C             L231c:
2759   231C A9 3D       				lda			#$3d
2760   231E 85 03       				sta			$03
2761   2320             L2320:
2762   2320 A9 48       				lda			#$48
2763   2322 85 0E       				sta			$0e
2764   2324 A9 40       				lda			#$40
2765   2326 85 0F       				sta			$0f
2766   2328 A9 B7       				lda			#$b7
2767   232A 8D 10 01    				sta			L0110
2768   232D A9 43       				lda			#$43
2769   232F 8D 11 01    				sta			L0111
2770   2332 A5 BF       				lda			$bf
2771   2334 4A          				lsr			a
2772   2335 AA          				tax
2773   2336 B5 DC       				lda			$dc, x
2774   2338 AA          				tax
2775   2339 BD C8 33    				lda			L33c8, x
2776   233C AA          				tax
2777   233D 20 48 23    				jsr			L2348
2778   2340 20 46 23    				jsr			L2346
2779   2343 20 46 23    				jsr			L2346
2780   2346             L2346:
2781   2346 A2 00       				ldx			#$00
2782   2348             L2348:
2783   2348 BC 3C 33    				ldy			L333c, x
2784   234B C0 FF       				cpy			#$ff
2785   234D F0 0E       				beq			L235d
2786   234F A5 A7       				lda			$a7
2787   2351 29 04       				and			#$04
2788   2353 D0 19       				bne			L236e
2789   2355 A5 03       				lda			$03
2790   2357 91 0E       				sta			($0e), y
2791   2359 E8          				inx
2792   235A 4C 48 23    				jmp			L2348
2793   235D             L235d:
2794   235D 18          				clc
2795   235E A5 0E       				lda			$0e
2796   2360 69 05       				adc			#$05
2797   2362 85 0E       				sta			$0e
2798   2364 38          				sec
2799   2365 AD 10 01    				lda			L0110
2800   2368 E9 05       				sbc			#$05
2801   236A 8D 10 01    				sta			L0110
2802   236D 60          				rts
2803   236E             L236e:
2804   236E 38          				sec
2805   236F 84 50       				sty			$50
2806   2371 AD 10 01    				lda			L0110
2807   2374 E5 50       				sbc			$50
2808   2376 85 50       				sta			$50
2809   2378 AD 11 01    				lda			L0111
2810   237B E9 00       				sbc			#$00
2811   237D 85 51       				sta			$51
2812   237F A0 00       				ldy			#$00
2813   2381 A5 03       				lda			$03
2814   2383 91 50       				sta			($50), y
2815   2385 E8          				inx
2816   2386 4C 48 23    				jmp			L2348
2817   2389             L2389:
2818   2389 20 25 2E    				jsr			L2e25								; Clear screen
2819   238C 20 0A 24    				jsr			L240a
2820   238F A5 BF       				lda			$bf
2821   2391 4A          				lsr			a
2822   2392 AA          				tax
2823   2393 F8          				sed
2824   2394 18          				clc
2825   2395 B5 DC       				lda			$dc, x
2826   2397 C9 09       				cmp			#$09
2827   2399 B0 04       				bcs			L239f
2828   239B 69 01       				adc			#$01
2829   239D 95 DC       				sta			$dc, x
2830   239F             L239f:
2831   239F 18          				clc
2832   23A0 65 BE       				adc			$be
2833   23A2 85 BE       				sta			$be
2834   23A4 A5 C3       				lda			$c3
2835   23A6 C9 09       				cmp			#$09
2836   23A8 B0 04       				bcs			L23ae
2837   23AA 69 01       				adc			#$01
2838   23AC 85 C3       				sta			$c3
2839   23AE             L23ae:
2840   23AE D8          				cld
2841   23AF 85 00       				sta			$00
2842   23B1 C6 00       				dec			$00
2843   23B3 A5 00       				lda			$00
2844   23B5 0A          				asl			a
2845   23B6 A8          				tay
2846   23B7 20 78 2E    				jsr			L2e78
2847   23BA 20 1C 23    				jsr			L231c
2848   23BD A9 11       				lda			#$11										; EXTRA POINTS
2849   23BF 20 00 2B    				jsr			L2b00										; Draw language string a
2850   23C2 A9 08       				lda			#$08										; BONUS
2851   23C4 20 00 2B    				jsr			L2b00										; Draw language string a
2852   23C7 A9 0E       				lda			#$0e										; * 10 POINTS
2853   23C9 20 00 2B    				jsr			L2b00										; Draw language string a
2854   23CC A5 A7       				lda			$a7
2855   23CE 29 04       				and			#$04
2856   23D0 D0 0A       				bne			L23dc
2857   23D2 A5 C3       				lda			$c3
2858   23D4 09 30       				ora			#$30
2859   23D6 8D 6E 42    				sta			$426e
2860   23D9 4C E3 23    				jmp			L23e3
2861   23DC             L23dc:
2862   23DC A5 C3       				lda			$c3
2863   23DE 09 30       				ora			#$30
2864   23E0 8D 91 41    				sta			$4191
2865   23E3             L23e3:
2866   23E3 A9 90       				lda			#$90
2867   23E5 8D 00 52    				sta			$5200								; Audio1
2868   23E8 20 18 24    				jsr			L2418
2869   23EB A2 2F       				ldx			#$2f
2870   23ED             L23ed:
2871   23ED 20 F7 23    				jsr			L23f7
2872   23F0 CA          				dex
2873   23F1 10 FA       				bpl			L23ed
2874   23F3 20 0A 24    				jsr			L240a
2875   23F6 60          				rts
2876   23F7             L23f7:
2877   23F7 C6 16       				dec			$16
2878   23F9 D0 FC       				bne			L23f7
2879   23FB A0 07       				ldy			#$07
2880   23FD             L23fd:
2881   23FD 20 39 2E    				jsr			L2e39
2882   2400 99 E8 49    				sta			$49e8, y
2883   2403 99 F0 4D    				sta			$4df0, y
2884   2406 88          				dey
2885   2407 10 F4       				bpl			L23fd
2886   2409 60          				rts
2887   240A             L240a:
2888   240A A9 FF       				lda			#$ff
2889   240C A0 07       				ldy			#$07
2890   240E             L240e:
2891   240E 99 E8 49    				sta			$49e8, y
2892   2411 99 F0 4D    				sta			$4df0, y
2893   2414 88          				dey
2894   2415 10 F7       				bpl			L240e
2895   2417 60          				rts
2896   2418             L2418:
2897   2418 20 1B 24    				jsr			L241b
2898   241B             L241b:
2899   241B A9 00       				lda			#$00
2900   241D 85 3F       				sta			$3f
2901   241F             L241f:
2902   241F 20 34 24    				jsr			L2434
2903   2422 A6 3F       				ldx			$3f
2904   2424             L2424:
2905   2424 E0 13       				cpx			#$13
2906   2426 B0 0B       				bcs			L2433
2907   2428 BD 29 33    				lda			L3329, x
2908   242B 8D 01 52    				sta			$5201								; Audio2
2909   242E E6 3F       				inc			$3f
2910   2430 4C 1F 24    				jmp			L241f
2911   2433             L2433:
2912   2433 60          				rts
2913   2434             L2434:
2914   2434 A9 BE       				lda			#$be
2915   2436 C5 03       				cmp			$03
2916   2438 F0 12       				beq			L244c
2917   243A 85 03       				sta			$03
2918   243C 20 20 23    				jsr			L2320
2919   243F             L243f:
2920   243F A9 12       				lda			#$12
2921   2441 85 17       				sta			$17
2922   2443             L2443:
2923   2443 C6 16       				dec			$16
2924   2445 D0 FC       				bne			L2443
2925   2447 C6 17       				dec			$17
2926   2449 10 F8       				bpl			L2443
2927   244B 60          				rts
2928   244C             L244c:
2929   244C 20 1C 23    				jsr			L231c
2930   244F 20 3F 24    				jsr			L243f
2931   2452 60          				rts
2932   2453             
2933   2453             				;; Set up character ram and ??
2934   2453             L2453:
2935   2453 20 84 2D    				jsr			L2d84								; Set up character RAM
2936   2456 A5 A7       				lda			$a7
2937   2458 29 04       				and			#$04
2938   245A F0 03       				beq			L245f
2939   245C 20 78 2C    				jsr			L2c78
2940   245F             L245f:
2941   245F 60          				rts
2942   2460             
2943   2460             L2460:
2944   2460 AD 03 51    				lda			$5103								; Interrupt condition
2945   2463 49 FF       				eor			#$ff
2946   2465 29 08       				and			#$08
2947   2467 D0 06       				bne			L246f
2948   2469 A5 A7       				lda			$a7
2949   246B 29 FB       				and			#$fb
2950   246D 85 A7       				sta			$a7
2951   246F             L246f:
2952   246F 60          				rts
2953   2470             L2470:
2954   2470 A5 A7       				lda			$a7
2955   2472 29 04       				and			#$04
2956   2474 F0 05       				beq			L247b
2957   2476 A9 00       				lda			#$00
2958   2478 4C 7D 24    				jmp			L247d
2959   247B             L247b:
2960   247B A9 01       				lda			#$01
2961   247D             L247d:
2962   247D 8D 01 51    				sta			$5101
2963   2480 AD 05 51    				lda			$5105
2964   2483 49 FF       				eor			#$ff
2965   2485 85 34       				sta			$34
2966   2487 60          				rts
2967   2488             L2488:
2968   2488 A9 05       				lda			#$05
2969   248A 85 80       				sta			$80
2970   248C A5 C3       				lda			$c3
2971   248E 0A          				asl			a
2972   248F 18          				clc
2973   2490 69 04       				adc			#$04
2974   2492 85 81       				sta			$81
2975   2494 A2 00       				ldx			#$00
2976   2496 86 95       				stx			$95
2977   2498 20 86 29    				jsr			L2986
2978   249B 60          				rts
2979   249C             L249c:
2980   249C A5 3E       				lda			$3e
2981   249E 29 20       				and			#$20
2982   24A0 F0 01       				beq			L24a3
2983   24A2 60          				rts
2984   24A3             L24a3:
2985   24A3 A5 B8       				lda			$b8
2986   24A5 C9 0F       				cmp			#$0f
2987   24A7 B0 01       				bcs			L24aa
2988   24A9 60          				rts
2989   24AA             L24aa:
2990   24AA A0 00       				ldy			#$00
2991   24AC 84 B8       				sty			$b8
2992   24AE 84 B9       				sty			$b9
2993   24B0 84 08       				sty			$08
2994   24B2 84 0D       				sty			$0d
2995   24B4 84 0B       				sty			$0b
2996   24B6 A9 0D       				lda			#$0d
2997   24B8 38          				sec
2998   24B9 E5 76       				sbc			$76
2999   24BB 10 02       				bpl			L24bf
3000   24BD A9 00       				lda			#$00
3001   24BF             L24bf:
3002   24BF 85 0A       				sta			$0a
3003   24C1 20 70 29    				jsr			L2970
3004   24C4 20 1E 2A    				jsr			L2a1e
3005   24C7 20 E8 24    				jsr			L24e8
3006   24CA 20 D5 24    				jsr			L24d5
3007   24CD A5 94       				lda			$94
3008   24CF 49 01       				eor			#$01
3009   24D1 29 03       				and			#$03
3010   24D3 85 94       				sta			$94
3011   24D5             L24d5:
3012   24D5 A5 94       				lda			$94
3013   24D7 0A          				asl			a
3014   24D8 85 93       				sta			$93
3015   24DA 0A          				asl			a
3016   24DB 0A          				asl			a
3017   24DC 49 10       				eor			#$10
3018   24DE 85 09       				sta			$09
3019   24E0 A6 93       				ldx			$93
3020   24E2 20 03 25    				jsr			L2503
3021   24E5 E6 2F       				inc			$2f
3022   24E7 60          				rts
3023   24E8             L24e8:
3024   24E8 A0 00       				ldy			#$00
3025   24EA             L24ea:
3026   24EA B9 52 03    				lda			L0352, y
3027   24ED 99 50 03    				sta			L0350, y
3028   24F0 C8          				iny
3029   24F1 C0 0B       				cpy			#$0b
3030   24F3 D0 F5       				bne			L24ea
3031   24F5 C6 80       				dec			$80
3032   24F7 30 03       				bmi			L24fc
3033   24F9 F0 01       				beq			L24fc
3034   24FB 60          				rts
3035   24FC             L24fc:
3036   24FC A5 3E       				lda			$3e
3037   24FE 09 30       				ora			#$30
3038   2500 85 3E       				sta			$3e
3039   2502 60          				rts
3040   2503             L2503:
3041   2503 BD 14 36    				lda			L3614, x
3042   2506 18          				clc
3043   2507 65 66       				adc			$66
3044   2509 85 0E       				sta			$0e
3045   250B A5 67       				lda			$67
3046   250D 69 00       				adc			#$00
3047   250F 85 0F       				sta			$0f
3048   2511 A5 2F       				lda			$2f
3049   2513 0A          				asl			a
3050   2514 0A          				asl			a
3051   2515 0A          				asl			a
3052   2516 A8          				tay
3053   2517 A2 00       				ldx			#$00
3054   2519             L2519:
3055   2519 B5 08       				lda			$08, x
3056   251B 99 00 02    				sta			L0200, y
3057   251E E8          				inx
3058   251F C8          				iny
3059   2520 E0 08       				cpx			#$08
3060   2522 D0 F5       				bne			L2519
3061   2524 60          				rts
3062   2525             
3063   2525             
3064   2525             				;; Attract mode / coinage screen
3065   2525             L2525:
3066   2525 2C 00 51    				bit			$5100										; DIPs
3067   2528 30 06       				bmi			L2530
3068   252A 20 B5 2B    				jsr			L2bb5										; Draw pence coinage
3069   252D 4C 33 25    				jmp			L2533
3070   2530             
3071   2530             L2530:
3072   2530 20 70 2B    				jsr			L2b70										; Draw quarter coinage
3073   2533             
3074   2533             L2533:
3075   2533 20 71 22    				jsr			L2271										; Draw HI SCR
3076   2536 20 9B 2B    				jsr			L2b9b
3077   2539 20 61 2B    				jsr			L2b61										; Draw DEPOSIT COIN
3078   253C 20 AD 26    				jsr			L26ad
3079   253F A9 0A       				lda			#$0a										; COPYRIGHT
3080   2541 20 00 2B    				jsr			L2b00										; Draw language string a
3081   2544 A9 0B       				lda			#$0b										; SPECTAR
3082   2546 20 00 2B    				jsr			L2b00										; Draw language string a
3083   2549 A9 1B       				lda			#$1b										; PL #1
3084   254B 20 00 2B    				jsr			L2b00										; Draw language string a
3085   254E A9 1C       				lda			#$1c										; PL #2
3086   2550 20 00 2B    				jsr			L2b00										; Draw language string a
3087   2553 20 F9 22    				jsr			L22f9										; Draw player scores
3088   2556 A9 0E       				lda			#$0e										; * 10 POINTS
3089   2558 20 00 2B    				jsr			L2b00										; Draw language string a
3090   255B 60          				rts
3091   255C             
3092   255C             
3093   255C             L255c:
3094   255C A5 A7       				lda			$a7
3095   255E 29 04       				and			#$04
3096   2560 F0 13       				beq			L2575
3097   2562 A9 E8       				lda			#$e8
3098   2564 85 1D       				sta			$1d
3099   2566 A9 D7       				lda			#$d7
3100   2568 85 1C       				sta			$1c
3101   256A A9 F2       				lda			#$f2
3102   256C 85 1A       				sta			$1a
3103   256E A9 FE       				lda			#$fe
3104   2570 85 1E       				sta			$1e
3105   2572 4C 85 25    				jmp			L2585
3106   2575             L2575:
3107   2575 A9 00       				lda			#$00
3108   2577 85 1D       				sta			$1d
3109   2579 A9 08       				lda			#$08
3110   257B 85 1C       				sta			$1c
3111   257D A9 F3       				lda			#$f3
3112   257F 85 1A       				sta			$1a
3113   2581 A9 01       				lda			#$01
3114   2583 85 1E       				sta			$1e
3115   2585             L2585:
3116   2585 A5 1A       				lda			$1a
3117   2587 8D 00 51    				sta			$5100
3118   258A 60          				rts
3119   258B             
3120   258B             L258b:
3121   258B 20 D3 25    				jsr			L25d3
3122   258E A9 1B       				lda			#$1b									; PL #1
3123   2590 20 00 2B    				jsr			L2b00								; Draw language string a
3124   2593 A9 1C       				lda			#$1c									; PL #2
3125   2595 20 00 2B    				jsr			L2b00								; Draw language string a
3126   2598 20 F9 22    				jsr			L22f9								; Draw player scores
3127   259B A4 C1       				ldy			$c1
3128   259D F0 1C       				beq			L25bb
3129   259F A5 A7       				lda			$a7
3130   25A1 29 04       				and			#$04
3131   25A3 D0 17       				bne			L25bc
3132   25A5 A5 BF       				lda			$bf
3133   25A7 C9 01       				cmp			#$01
3134   25A9 F0 05       				beq			L25b0
3135   25AB A2 09       				ldx			#$09
3136   25AD 4C B2 25    				jmp			L25b2
3137   25B0             L25b0:
3138   25B0 A2 00       				ldx			#$00
3139   25B2             L25b2:
3140   25B2 A9 E4       				lda			#$e4
3141   25B4             L25b4:
3142   25B4 9D 2A 40    				sta			$402a, x
3143   25B7 E8          				inx
3144   25B8 88          				dey
3145   25B9 D0 F9       				bne			L25b4
3146   25BB             L25bb:
3147   25BB 60          				rts
3148   25BC             L25bc:
3149   25BC A5 BF       				lda			$bf
3150   25BE C9 01       				cmp			#$01
3151   25C0 F0 05       				beq			L25c7
3152   25C2 A2 00       				ldx			#$00
3153   25C4 4C C9 25    				jmp			L25c9
3154   25C7             L25c7:
3155   25C7 A2 00       				ldx			#$00
3156   25C9             L25c9:
3157   25C9 A9 E5       				lda			#$e5
3158   25CB             L25cb:
3159   25CB 9D C8 43    				sta			$43c8, x
3160   25CE E8          				inx
3161   25CF 88          				dey
3162   25D0 D0 F9       				bne			L25cb
3163   25D2 60          				rts
3164   25D3             L25d3:
3165   25D3 20 88 24    				jsr			L2488
3166   25D6 20 5C 25    				jsr			L255c
3167   25D9 A9 00       				lda			#$00
3168   25DB 85 30       				sta			$30
3169   25DD 85 3E       				sta			$3e
3170   25DF 85 1F       				sta			$1f
3171   25E1 85 6F       				sta			$6f
3172   25E3 85 31       				sta			$31
3173   25E5 85 B3       				sta			$b3
3174   25E7 8D 5B 02    				sta			L025b
3175   25EA 85 B9       				sta			$b9
3176   25EC 85 B8       				sta			$b8
3177   25EE 85 B3       				sta			$b3
3178   25F0 85 2F       				sta			$2f
3179   25F2 85 BC       				sta			$bc
3180   25F4 A9 03       				lda			#$03
3181   25F6 85 20       				sta			$20
3182   25F8 85 21       				sta			$21
3183   25FA 20 25 2E    				jsr			L2e25								; Clear screen
3184   25FD 20 AD 26    				jsr			L26ad
3185   2600 20 32 2C    				jsr			L2c32
3186   2603 20 DE 28    				jsr			L28de
3187   2606 A9 FF       				lda			#$ff
3188   2608 8D 52 02    				sta			L0252
3189   260B 8D 62 02    				sta			L0262
3190   260E 60          				rts
3191   260F             L260f:
3192   260F A5 3E       				lda			$3e
3193   2611 29 10       				and			#$10
3194   2613 F0 33       				beq			L2648
3195   2615 A5 2F       				lda			$2f
3196   2617 C9 04       				cmp			#$04
3197   2619 B0 2D       				bcs			L2648
3198   261B C6 7B       				dec			$7b
3199   261D D0 29       				bne			L2648
3200   261F A2 00       				ldx			#$00
3201   2621             L2621:
3202   2621 BC EE 35    				ldy			L35ee, x
3203   2624 B9 00 02    				lda			L0200, y
3204   2627 29 0F       				and			#$0f
3205   2629 85 42       				sta			$42
3206   262B C6 42       				dec			$42
3207   262D A5 42       				lda			$42
3208   262F 30 04       				bmi			L2635
3209   2631 C9 02       				cmp			#$02
3210   2633 B0 04       				bcs			L2639
3211   2635             L2635:
3212   2635 A9 02       				lda			#$02
3213   2637 85 42       				sta			$42
3214   2639             L2639:
3215   2639 B9 00 02    				lda			L0200, y
3216   263C 29 F0       				and			#$f0
3217   263E 05 42       				ora			$42
3218   2640 99 00 02    				sta			L0200, y
3219   2643 E8          				inx
3220   2644 E0 06       				cpx			#$06
3221   2646 90 D9       				bcc			L2621
3222   2648             L2648:
3223   2648 60          				rts
3224   2649             
3225   2649             L2649:
3226   2649 C6 71       				dec			$71
3227   264B 30 01       				bmi			L264e
3228   264D             
3229   264D 60          				rts
3230   264E             
3231   264E             L264e:
3232   264E E6 73       				inc			$73
3233   2650 A5 73       				lda			$73
3234   2652 29 03       				and			#$03										; Mask LSBs
3235   2654 0A          				asl			a												; a<<1
3236   2655 0A          				asl			a												; a<<2
3237   2656 AA          				tax
3238   2657 BD F4 35    				lda			L35f4, x
3239   265A 8D 42 4F    				sta			$4f42
3240   265D E8          				inx
3241   265E BD F4 35    				lda			L35f4, x
3242   2661 8D 43 4F    				sta			$4f43
3243   2664 E8          				inx
3244   2665 BD F4 35    				lda			L35f4, x
3245   2668 8D 44 4F    				sta			$4f44
3246   266B E8          				inx
3247   266C BD F4 35    				lda			L35f4, x
3248   266F 8D 45 4F    				sta			$4f45
3249   2672 A9 08       				lda			#$08
3250   2674 85 71       				sta			$71
3251   2676 60          				rts
3252   2677             
3253   2677             				;; Decrement credits
3254   2677             L2677:
3255   2677 A5 A1       				lda			$a1									; Credits
3256   2679 D0 02       				bne			L267d
3257   267B 38          				sec
3258   267C 60          				rts
3259   267D             
3260   267D             L267d:
3261   267D F8          				sed
3262   267E 38          				sec
3263   267F E9 01       				sbc			#$01
3264   2681 85 A1       				sta			$a1									; Credits
3265   2683 D8          				cld
3266   2684 20 AD 26    				jsr			L26ad
3267   2687 18          				clc
3268   2688 60          				rts
3269   2689             
3270   2689             				;; Coin to credit
3271   2689             L2689:
3272   2689 AD 00 51    				lda			$5100								; Dips
3273   268C 29 18       				and			#$18									; Coins per credit
3274   268E C9 10       				cmp			#$10
3275   2690 D0 09       				bne			L269b								; Add Credits
3276   2692             
3277   2692 E6 A0       				inc			$a0									; Half coins
3278   2694 A5 A0       				lda			$a0									; Half coins
3279   2696 C9 02       				cmp			#$02
3280   2698 B0 01       				bcs			L269b								; Add credits
3281   269A 60          				rts
3282   269B             
3283   269B             L269b:
3284   269B A5 A1       				lda			$a1									; Credits
3285   269D C9 99       				cmp			#$99
3286   269F D0 01       				bne			L26a2								; < 99 credits
3287   26A1 60          				rts
3288   26A2             
3289   26A2             				;; Add credit BCD
3290   26A2             L26a2:
3291   26A2 F8          				sed
3292   26A3 18          				clc
3293   26A4 69 01       				adc			#$01
3294   26A6 85 A1       				sta			$a1									; Credits
3295   26A8 D8          				cld
3296   26A9 A9 00       				lda			#$00
3297   26AB 85 A0       				sta			$a0									; Half coins
3298   26AD             
3299   26AD             L26ad:
3300   26AD A9 09       				lda			#$09									; CREDITS
3301   26AF 20 00 2B    				jsr			L2b00								; Draw language string a
3302   26B2             
3303   26B2 A5 A7       				lda			$a7
3304   26B4 29 04       				and			#$04
3305   26B6 D0 13       				bne			L26cb
3306   26B8             
3307   26B8 A5 A1       				lda			$a1									; Credits
3308   26BA 20 16 2E    				jsr			L2e16								; Split nybbles
3309   26BD             
3310   26BD 09 30       				ora			#$30									; BCD to char
3311   26BF 8D 14 40    				sta			$4014								; Write lo char
3312   26C2 A5 52       				lda			$52									; Lo BCD
3313   26C4 09 30       				ora			#$30									; BCD to char
3314   26C6 8D 15 40    				sta			$4015								; Write hi char
3315   26C9 38          				sec
3316   26CA 60          				rts
3317   26CB             
3318   26CB             
3319   26CB             L26cb:
3320   26CB A5 A1       				lda			$a1									; Credits
3321   26CD 20 16 2E    				jsr			L2e16								; Split nybbles
3322   26D0 09 30       				ora			#$30
3323   26D2 8D EB 43    				sta			$43eb
3324   26D5 A5 52       				lda			$52
3325   26D7 09 30       				ora			#$30
3326   26D9 8D EA 43    				sta			$43ea
3327   26DC 38          				sec
3328   26DD 60          				rts
3329   26DE             
3330   26DE             				;; Interrupt handler
3331   26DE             LIRQ:
3332   26DE             L26de:
3333   26DE 08          				php
3334   26DF 48          				pha
3335   26E0 8A          				txa
3336   26E1 48          				pha
3337   26E2 98          				tya
3338   26E3 48          				pha
3339   26E4             
3340   26E4 AD 03 51    				lda			$5103										; Interrupt condition
3341   26E7 A8          				tay
3342   26E8 29 60       				and			#$60										; Mask coins
3343   26EA D0 0D       				bne			L26f9										; Coin active
3344   26EC             
3345   26EC 98          				tya
3346   26ED 10 07       				bpl			L26f6										; VBLank
3347   26EF             
3348   26EF             				;; End of interrupt handler
3349   26EF             L26ef:
3350   26EF 68          				pla
3351   26F0 A8          				tay
3352   26F1 68          				pla
3353   26F2 AA          				tax
3354   26F3 68          				pla															; INSERT GAME SWITCH CHECK
3355   26F4 28          				plp
3356   26F5 40          				rti
3357   26F6             
3358   26F6             				;; Coin interrupt
3359   26F6             L26f6:
3360   26F6 4C 14 28    				jmp			L2814
3361   26F9             
3362   26F9             				;; VBlank interrupt
3363   26F9             L26f9:
3364   26F9 A5 A2       				lda			$a2
3365   26FB C9 06       				cmp			#$06
3366   26FD 90 F0       				bcc			L26ef										; End of handler
3367   26FF             
3368   26FF 20 86 27    				jsr			L2786
3369   2702 B0 EB       				bcs			L26ef										; End of handler
3370   2704             
3371   2704             				;; Push y
3372   2704 98          				tya
3373   2705 48          				pha
3374   2706             
3375   2706             				;; Push ($15-15) address?
3376   2706 A5 14       				lda			$14
3377   2708 48          				pha
3378   2709 A5 15       				lda			$15
3379   270B 48          				pha
3380   270C             
3381   270C             				;; Push ($0e-0f) address?
3382   270C A5 0E       				lda			$0e
3383   270E 48          				pha
3384   270F A5 0F       				lda			$0f
3385   2711 48          				pha
3386   2712             
3387   2712 A9 00       				lda			#$00
3388   2714 85 A2       				sta			$a2
3389   2716 2C 00 51    				bit			$5100										; DIPs
3390   2719 30 3D       				bmi			L2758										; US/UK Coins
3391   271B             				
3392   271B AD 03 03    				lda			L0303
3393   271E C9 40       				cmp			#$40
3394   2720 D0 18       				bne			L273a
3395   2722             
3396   2722 AD 00 51    				lda			$5100										; DIPs
3397   2725 49 FF       				eor			#$ff										; Invert
3398   2727 29 02       				and			#$02										; Coinage
3399   2729 D0 0C       				bne			L2737
3400   272B             
3401   272B E6 A0       				inc			$a0											; Half coins
3402   272D A5 A0       				lda			$a0											; Half coins
3403   272F C9 02       				cmp			#$02
3404   2731 90 42       				bcc			L2775
3405   2733 A9 00       				lda			#$00
3406   2735 85 A0       				sta			$a0											; Half coins
3407   2737             L2737:
3408   2737 4C 69 27    				jmp			L2769
3409   273A             
3410   273A             L273a:
3411   273A AD 00 51    				lda			$5100										; DIPs
3412   273D 49 FF       				eor			#$ff										; Invert
3413   273F 29 02       				and			#$02										;
3414   2741 D0 09       				bne			L274c
3415   2743             
3416   2743             				;; Add 2 coins
3417   2743             L2743:
3418   2743 20 89 26    				jsr			L2689										; Coin to credit
3419   2746 20 89 26    				jsr			L2689										; Coin to credit
3420   2749 4C 69 27    				jmp			L2769
3421   274C             
3422   274C             				;; Add 5 coins
3423   274C             L274c:
3424   274C 20 89 26    				jsr			L2689										; Coin to credit
3425   274F 20 89 26    				jsr			L2689										; Coin to credit
3426   2752 20 89 26    				jsr			L2689										; Coin to credit
3427   2755 4C 43 27    				jmp			L2743
3428   2758             
3429   2758             L2758:
3430   2758 2C 03 03    				bit			L0303
3431   275B 30 18       				bmi			L2775
3432   275D             
3433   275D             				;; US Coinage
3434   275D AD 00 51    				lda			$5100								; DIPs
3435   2760 49 FF       				eor			#$ff									; Invert
3436   2762 29 18       				and			#$18									; US Coinage
3437   2764 D0 03       				bne			L2769								; No display
3438   2766             				
3439   2766 20 89 26    				jsr			L2689								; Coin to credit
3440   2769             L2769:
3441   2769 20 89 26    				jsr			L2689								; Coin to credit
3442   276C 90 07       				bcc			L2775
3443   276E             
3444   276E 24 A7       				bit			$a7
3445   2770 30 03       				bmi			L2775
3446   2772 20 EF 27    				jsr			L27ef
3447   2775             
3448   2775             				;; Stack back to ($0e-0f)
3449   2775             L2775:
3450   2775 68          				pla
3451   2776 85 0F       				sta			$0f
3452   2778 68          				pla
3453   2779 85 0E       				sta			$0e
3454   277B             
3455   277B             				;; Stack back tp ($14-15)
3456   277B 68          				pla
3457   277C 85 15       				sta			$15
3458   277E 68          				pla
3459   277F 85 14       				sta			$14
3460   2781             
3461   2781 68          				pla													; Pull y
3462   2782 A8          				tay
3463   2783 4C EF 26    				jmp			L26ef								; End of handler
3464   2786             
3465   2786             
3466   2786             L2786:
3467   2786 A9 05       				lda			#$05
3468   2788 85 53       				sta			$53
3469   278A 2C 01 51    				bit			$5101								; Control inputs
3470   278D 10 12       				bpl			L27a1								; Coin 1 not pressed
3471   278F             
3472   278F AD 00 51    				lda			$5100								; DIPs
3473   2792 29 01       				and			#$01									; Mask Coin 2
3474   2794 D0 2F       				bne			L27c5
3475   2796 C6 53       				dec			$53
3476   2798 D0 EC       				bne			L2786								; Loop
3477   279A             				
3478   279A A9 00       				lda			#$00
3479   279C 8D 03 03    				sta			L0303
3480   279F 38          				sec
3481   27A0 60          				rts
3482   27A1             
3483   27A1             L27a1:
3484   27A1 A9 FF       				lda			#$ff									; Init counter
3485   27A3 85 53       				sta			$53
3486   27A5             
3487   27A5             L27a5:
3488   27A5 2C 01 51    				bit			$5101								; Control inputs
3489   27A8 30 DC       				bmi			L2786								; Coin 1
3490   27AA C6 53       				dec			$53
3491   27AC D0 F7       				bne			L27a5
3492   27AE             
3493   27AE             L27ae:
3494   27AE 2C 01 51    				bit			$5101								; Control inputs
3495   27B1 10 FB       				bpl			L27ae								; Loop until D7 high
3496   27B3             
3497   27B3 C6 53       				dec			$53
3498   27B5             L27b5:
3499   27B5 2C 01 51    				bit			$5101								; Control inputs
3500   27B8 10 F4       				bpl			L27ae								; Loop until D7 high
3501   27BA             
3502   27BA C6 53       				dec			$53
3503   27BC D0 F7       				bne			L27b5								; Loop until $53==0
3504   27BE             				
3505   27BE A9 40       				lda			#$40
3506   27C0 8D 03 03    				sta			L0303
3507   27C3 18          				clc
3508   27C4 60          				rts
3509   27C5             
3510   27C5             
3511   27C5             L27c5:
3512   27C5 A9 FF       				lda			#$ff
3513   27C7 85 53       				sta			$53
3514   27C9             L27c9:
3515   27C9 AD 00 51    				lda			$5100
3516   27CC 29 01       				and			#$01
3517   27CE F0 B6       				beq			L2786
3518   27D0 C6 53       				dec			$53
3519   27D2 D0 F5       				bne			L27c9
3520   27D4             L27d4:
3521   27D4 AD 00 51    				lda			$5100
3522   27D7 29 01       				and			#$01
3523   27D9 D0 F9       				bne			L27d4
3524   27DB C6 53       				dec			$53
3525   27DD             L27dd:
3526   27DD AD 00 51    				lda			$5100
3527   27E0 29 01       				and			#$01
3528   27E2 D0 F0       				bne			L27d4
3529   27E4 C6 53       				dec			$53
3530   27E6 D0 F5       				bne			L27dd
3531   27E8 A9 80       				lda			#$80
3532   27EA 8D 03 03    				sta			L0303
3533   27ED 18          				clc
3534   27EE 60          				rts
3535   27EF             L27ef:
3536   27EF A9 90       				lda			#$90
3537   27F1 8D 00 52    				sta			$5200								; Audio1
3538   27F4 A2 00       				ldx			#$00
3539   27F6             L27f6:
3540   27F6 BD 24 36    				lda			L3624, x
3541   27F9 8D 01 52    				sta			$5201								; Audio2
3542   27FC C9 FF       				cmp			#$ff
3543   27FE F0 0E       				beq			L280e
3544   2800 A0 03       				ldy			#$03
3545   2802             L2802:
3546   2802 CE 01 01    				dec			L0101
3547   2805 D0 FB       				bne			L2802
3548   2807 88          				dey
3549   2808 10 F8       				bpl			L2802
3550   280A E8          				inx
3551   280B 4C F6 27    				jmp			L27f6
3552   280E             L280e:
3553   280E A9 10       				lda			#$10
3554   2810 8D 00 52    				sta			$5200								; Audio1
3555   2813 60          				rts
3556   2814             
3557   2814             				;; Coin interrupt
3558   2814             L2814:
3559   2814 A5 A7       				lda			$a7
3560   2816 29 20       				and			#$20
3561   2818 D0 19       				bne			L2833
3562   281A             
3563   281A A5 1C       				lda			$1c
3564   281C 8D 00 50    				sta			$5000								; Sprite 1 X
3565   281F A5 1D       				lda			$1d
3566   2821 8D 40 50    				sta			$5040								; Sprite 1 Y
3567   2824 A5 22       				lda			$22
3568   2826 8D 80 50    				sta			$5080								; Sprite 2 X
3569   2829 A5 23       				lda			$23
3570   282B 8D C0 50    				sta			$50c0								; Sprite 2 Y
3571   282E A5 1A       				lda			$1a
3572   2830 8D 00 51    				sta			$5100								; Sprite #s
3573   2833             
3574   2833             L2833:
3575   2833 E6 A2       				inc			$a2
3576   2835 10 04       				bpl			L283b
3577   2837             
3578   2837 A9 80       				lda			#$80
3579   2839 85 A2       				sta			$a2
3580   283B             L283b:
3581   283B A5 30       				lda			$30
3582   283D 09 80       				ora			#$80
3583   283F 85 30       				sta			$30
3584   2841 4C EF 26    				jmp			L26ef								; End of handler
3585   2844             
3586   2844             
3587   2844             				;; Flash press start
3588   2844             L2844:
3589   2844 CE 16 03    				dec			L0316
3590   2847 D0 24       				bne			L286d								; No change until timer expires
3591   2849             
3592   2849 AD 17 03    				lda			L0317
3593   284C 10 0D       				bpl			L285b								;
3594   284E             
3595   284E A9 07       				lda			#$07									; OR ________
3596   2850 20 00 2B    				jsr			L2b00								; Draw language string a
3597   2853 A9 18       				lda			#$18
3598   2855 8D 16 03    				sta			L0316
3599   2858 4C 65 28    				jmp			L2865
3600   285B             
3601   285B             L285b:
3602   285B A9 06       				lda			#$06									; OR PRESS START
3603   285D 20 00 2B    				jsr			L2b00								; Draw language string a
3604   2860 A9 26       				lda			#$26
3605   2862 8D 16 03    				sta			L0316
3606   2865             
3607   2865             L2865:
3608   2865 AD 17 03    				lda			L0317
3609   2868 49 FF       				eor			#$ff
3610   286A 8D 17 03    				sta			L0317
3611   286D             L286d:
3612   286D 60          				rts
3613   286E             
3614   286E             
3615   286E             L286e:
3616   286E A9 01       				lda			#$01
3617   2870 85 28       				sta			$28
3618   2872 A9 0A       				lda			#$0a
3619   2874 85 B1       				sta			$b1
3620   2876 20 D3 25    				jsr			L25d3
3621   2879 20 F9 22    				jsr			L22f9								; Draw player scores
3622   287C 20 71 22    				jsr			L2271								; Draw HI SCR
3623   287F A9 00       				lda			#$00
3624   2881 85 A7       				sta			$a7
3625   2883 60          				rts
3626   2884             
3627   2884             L2884:
3628   2884 A5 3E       				lda			$3e
3629   2886 29 20       				and			#$20
3630   2888 D0 04       				bne			L288e
3631   288A C6 B3       				dec			$b3
3632   288C 30 01       				bmi			L288f
3633   288E             L288e:
3634   288E 60          				rts
3635   288F             L288f:
3636   288F A9 05       				lda			#$05
3637   2891 85 B3       				sta			$b3
3638   2893 E6 B8       				inc			$b8
3639   2895 E6 B9       				inc			$b9
3640   2897 A5 80       				lda			$80
3641   2899 F0 42       				beq			L28dd
3642   289B C9 06       				cmp			#$06
3643   289D B0 3E       				bcs			L28dd
3644   289F 85 86       				sta			$86
3645   28A1 A5 B9       				lda			$b9
3646   28A3 29 03       				and			#$03
3647   28A5 AA          				tax
3648   28A6 BD 04 36    				lda			L3604, x
3649   28A9 AA          				tax
3650   28AA 86 41       				stx			$41
3651   28AC E8          				inx
3652   28AD 86 42       				stx			$42
3653   28AF E8          				inx
3654   28B0 86 43       				stx			$43
3655   28B2 E8          				inx
3656   28B3 86 44       				stx			$44
3657   28B5 A2 00       				ldx			#$00
3658   28B7             L28b7:
3659   28B7 BD 50 03    				lda			L0350, x
3660   28BA E8          				inx
3661   28BB 85 B4       				sta			$b4
3662   28BD BD 50 03    				lda			L0350, x
3663   28C0 E8          				inx
3664   28C1 85 B5       				sta			$b5
3665   28C3 A5 41       				lda			$41
3666   28C5 A0 00       				ldy			#$00
3667   28C7 91 B4       				sta			($b4), y
3668   28C9 A5 42       				lda			$42
3669   28CB C8          				iny
3670   28CC 91 B4       				sta			($b4), y
3671   28CE A0 20       				ldy			#$20
3672   28D0 A5 43       				lda			$43
3673   28D2 91 B4       				sta			($b4), y
3674   28D4 C8          				iny
3675   28D5 A5 44       				lda			$44
3676   28D7 91 B4       				sta			($b4), y
3677   28D9 C6 86       				dec			$86
3678   28DB D0 DA       				bne			L28b7
3679   28DD             L28dd:
3680   28DD 60          				rts
3681   28DE             L28de:
3682   28DE A6 82       				ldx			$82
3683   28E0 86 01       				stx			$01
3684   28E2 A0 00       				ldy			#$00
3685   28E4 84 83       				sty			$83
3686   28E6             L28e6:
3687   28E6 A6 01       				ldx			$01
3688   28E8 A4 83       				ldy			$83
3689   28EA B9 30 03    				lda			L0330, y
3690   28ED 20 6A 2A    				jsr			L2a6a
3691   28F0 20 7E 2A    				jsr			L2a7e
3692   28F3 A4 83       				ldy			$83
3693   28F5 A5 B4       				lda			$b4
3694   28F7 99 50 03    				sta			L0350, y
3695   28FA C8          				iny
3696   28FB A5 B5       				lda			$b5
3697   28FD 99 50 03    				sta			L0350, y
3698   2900 C8          				iny
3699   2901 84 83       				sty			$83
3700   2903 C6 01       				dec			$01
3701   2905 10 DF       				bpl			L28e6
3702   2907 20 0E 29    				jsr			L290e
3703   290A 20 B5 2A    				jsr			L2ab5
3704   290D 60          				rts
3705   290E             L290e:
3706   290E A0 00       				ldy			#$00
3707   2910 84 83       				sty			$83
3708   2912 A5 81       				lda			$81
3709   2914 85 41       				sta			$41
3710   2916             L2916:
3711   2916 20 68 29    				jsr			L2968
3712   2919 20 1E 2A    				jsr			L2a1e
3713   291C B0 0E       				bcs			L292c
3714   291E A5 94       				lda			$94
3715   2920 49 FF       				eor			#$ff
3716   2922 29 02       				and			#$02
3717   2924 18          				clc
3718   2925 69 B0       				adc			#$b0
3719   2927 85 03       				sta			$03
3720   2929 20 31 29    				jsr			L2931
3721   292C             L292c:
3722   292C C6 41       				dec			$41
3723   292E 10 E6       				bpl			L2916
3724   2930 60          				rts
3725   2931             L2931:
3726   2931 A5 94       				lda			$94
3727   2933 0A          				asl			a
3728   2934 AA          				tax
3729   2935 20 3B 29    				jsr			L293b
3730   2938 E8          				inx
3731   2939 E6 03       				inc			$03
3732   293B             L293b:
3733   293B BC 14 36    				ldy			L3614, x
3734   293E 20 50 29    				jsr			L2950
3735   2941 BC 0C 36    				ldy			L360c, x
3736   2944 20 50 29    				jsr			L2950
3737   2947 BC 1C 36    				ldy			L361c, x
3738   294A 20 50 29    				jsr			L2950
3739   294D E6 05       				inc			$05
3740   294F 60          				rts
3741   2950             L2950:
3742   2950 B1 66       				lda			($66), y
3743   2952 C9 E0       				cmp			#$e0
3744   2954 B0 0C       				bcs			L2962
3745   2956 C9 B0       				cmp			#$b0
3746   2958 90 04       				bcc			L295e
3747   295A C9 B4       				cmp			#$b4
3748   295C 90 05       				bcc			L2963
3749   295E             L295e:
3750   295E A5 03       				lda			$03
3751   2960 91 66       				sta			($66), y
3752   2962             L2962:
3753   2962 60          				rts
3754   2963             L2963:
3755   2963 A9 B4       				lda			#$b4
3756   2965 91 66       				sta			($66), y
3757   2967 60          				rts
3758   2968             L2968:
3759   2968 A4 83       				ldy			$83
3760   296A 20 70 29    				jsr			L2970
3761   296D 84 83       				sty			$83
3762   296F 60          				rts
3763   2970             L2970:
3764   2970 B9 50 03    				lda			L0350, y
3765   2973 85 0E       				sta			$0e
3766   2975 18          				clc
3767   2976 69 BE       				adc			#$be
3768   2978 85 66       				sta			$66
3769   297A C8          				iny
3770   297B B9 50 03    				lda			L0350, y
3771   297E 85 0F       				sta			$0f
3772   2980 69 FF       				adc			#$ff
3773   2982 85 67       				sta			$67
3774   2984 C8          				iny
3775   2985 60          				rts
3776   2986             L2986:
3777   2986 A5 81       				lda			$81
3778   2988 0A          				asl			a
3779   2989 85 82       				sta			$82
3780   298B 85 48       				sta			$48
3781   298D 0A          				asl			a
3782   298E 85 03       				sta			$03
3783   2990 A6 03       				ldx			$03
3784   2992 A9 FF       				lda			#$ff
3785   2994             L2994:
3786   2994 9D 30 03    				sta			L0330, x
3787   2997 CA          				dex
3788   2998 10 FA       				bpl			L2994
3789   299A A2 00       				ldx			#$00
3790   299C 86 84       				stx			$84
3791   299E             L299e:
3792   299E 20 A6 29    				jsr			L29a6
3793   29A1 C6 03       				dec			$03
3794   29A3 10 F9       				bpl			L299e
3795   29A5 60          				rts
3796   29A6             L29a6:
3797   29A6 20 C0 29    				jsr			L29c0
3798   29A9 20 5C 2A    				jsr			L2a5c
3799   29AC B0 F8       				bcs			L29a6
3800   29AE A6 84       				ldx			$84
3801   29B0 9D 30 03    				sta			L0330, x
3802   29B3 A6 48       				ldx			$48
3803   29B5 9D 30 03    				sta			L0330, x
3804   29B8 FE 30 03    				inc			L0330, x
3805   29BB E6 84       				inc			$84
3806   29BD E6 48       				inc			$48
3807   29BF 60          				rts
3808   29C0             L29c0:
3809   29C0 20 4C 2E    				jsr			L2e4c
3810   29C3 29 7F       				and			#$7f
3811   29C5 C9 4F       				cmp			#$4f
3812   29C7 90 01       				bcc			L29ca
3813   29C9 4A          				lsr			a
3814   29CA             L29ca:
3815   29CA 18          				clc
3816   29CB 69 01       				adc			#$01
3817   29CD 60          				rts
3818   29CE             
3819   29CE             			;; Copy P1 values to active
3820   29CE             L29ce:
3821   29CE A2 00       				ldx			#$00
3822   29D0 4C D5 29    				jmp			L29d5
3823   29D3             
3824   29D3             			;; Copy P2 values to active
3825   29D3             L29d3:
3826   29D3 A2 01       				ldx			#$01
3827   29D5             L29d5:
3828   29D5 B5 D0       				lda			$d0, x
3829   29D7 85 BD       				sta			$bd
3830   29D9 B5 D2       				lda			$d2, x
3831   29DB 85 BE       				sta			$be
3832   29DD B5 D4       				lda			$d4, x
3833   29DF 85 B1       				sta			$b1
3834   29E1 B5 D6       				lda			$d6, x
3835   29E3 85 C1       				sta			$c1
3836   29E5 B5 DA       				lda			$da, x
3837   29E7 85 C3       				sta			$c3
3838   29E9 B5 DE       				lda			$de, x
3839   29EB 85 28       				sta			$28
3840   29ED B5 79       				lda			$79, x
3841   29EF 85 74       				sta			$74
3842   29F1 B5 77       				lda			$77, x
3843   29F3 85 76       				sta			$76
3844   29F5 60          				rts
3845   29F6             
3846   29F6             				;; Init P1 values (?)
3847   29F6             L29f6:
3848   29F6 A2 00       				ldx			#$00
3849   29F8 4C FD 29    				jmp			L29fd
3850   29FB             
3851   29FB             				;; Init P2 values (?)
3852   29FB             L29fb:
3853   29FB A2 01       				ldx			#$01
3854   29FD             L29fd:
3855   29FD A5 BD       				lda			$bd
3856   29FF 95 D0       				sta			$d0, x								; $bd to $d0 or $d1
3857   2A01 A5 BE       				lda			$be
3858   2A03 95 D2       				sta			$d2, x								; $be to $d2 or $d3
3859   2A05 A5 B1       				lda			$b1
3860   2A07 95 D4       				sta			$d4, x								; $b1 to $d4 or $d5
3861   2A09 A5 C1       				lda			$c1
3862   2A0B 95 D6       				sta			$d6, x								; $c1 to $d6 or $d7
3863   2A0D A5 C3       				lda			$c3
3864   2A0F 95 DA       				sta			$da, x								; $c3 to $da or $db
3865   2A11 A5 28       				lda			$28
3866   2A13 95 DE       				sta			$de, x								; $28 to $de or $df
3867   2A15 A5 74       				lda			$74
3868   2A17 95 79       				sta			$79, x								; $74 to $79 or $7a
3869   2A19 A5 76       				lda			$76
3870   2A1B 95 77       				sta			$77, x								; $76 to $77 or $78
3871   2A1D 60          				rts
3872   2A1E             
3873   2A1E             L2a1e:
3874   2A1E A2 03       				ldx			#$03
3875   2A20             L2a20:
3876   2A20 20 31 2A    				jsr			L2a31
3877   2A23 B0 17       				bcs			L2a3c
3878   2A25 CA          				dex
3879   2A26 10 F8       				bpl			L2a20
3880   2A28 20 39 2E    				jsr			L2e39
3881   2A2B 29 03       				and			#$03
3882   2A2D 85 94       				sta			$94
3883   2A2F 18          				clc
3884   2A30 60          				rts
3885   2A31             L2a31:
3886   2A31 BC 08 36    				ldy			L3608, x
3887   2A34 B1 66       				lda			($66), y
3888   2A36 C9 20       				cmp			#$20
3889   2A38 D0 02       				bne			L2a3c
3890   2A3A 18          				clc
3891   2A3B 60          				rts
3892   2A3C             L2a3c:
3893   2A3C 38          				sec
3894   2A3D 60          				rts
3895   2A3E             L2a3e:
3896   2A3E 20 39 2E    				jsr			L2e39
3897   2A41 C9 51       				cmp			#$51
3898   2A43 B0 16       				bcs			L2a5b
3899   2A45 20 5C 2A    				jsr			L2a5c
3900   2A48 B0 11       				bcs			L2a5b
3901   2A4A 85 00       				sta			$00
3902   2A4C EE 5C 02    				inc			L025c
3903   2A4F AD 5C 02    				lda			L025c
3904   2A52 29 0F       				and			#$0f
3905   2A54 AA          				tax
3906   2A55 A5 00       				lda			$00
3907   2A57 9D 30 03    				sta			L0330, x
3908   2A5A 18          				clc
3909   2A5B             L2a5b:
3910   2A5B 60          				rts
3911   2A5C             L2a5c:
3912   2A5C A2 0F       				ldx			#$0f
3913   2A5E             L2a5e:
3914   2A5E DD 30 03    				cmp			L0330, x
3915   2A61 F0 05       				beq			L2a68
3916   2A63 CA          				dex
3917   2A64 10 F8       				bpl			L2a5e
3918   2A66 18          				clc
3919   2A67 60          				rts
3920   2A68             L2a68:
3921   2A68 38          				sec
3922   2A69 60          				rts
3923   2A6A             L2a6a:
3924   2A6A 85 41       				sta			$41
3925   2A6C A9 FF       				lda			#$ff
3926   2A6E 85 42       				sta			$42
3927   2A70 A5 41       				lda			$41
3928   2A72             L2a72:
3929   2A72 E6 42       				inc			$42
3930   2A74 38          				sec
3931   2A75 E9 09       				sbc			#$09
3932   2A77 10 F9       				bpl			L2a72
3933   2A79 69 09       				adc			#$09
3934   2A7B 85 41       				sta			$41
3935   2A7D 60          				rts
3936   2A7E             L2a7e:
3937   2A7E A9 40       				lda			#$40
3938   2A80 85 B5       				sta			$b5
3939   2A82 A9 20       				lda			#$20
3940   2A84 85 B4       				sta			$b4
3941   2A86 A5 A7       				lda			$a7
3942   2A88 29 04       				and			#$04
3943   2A8A F0 08       				beq			L2a94
3944   2A8C A9 3F       				lda			#$3f
3945   2A8E 85 B5       				sta			$b5
3946   2A90 A9 E0       				lda			#$e0
3947   2A92 85 B4       				sta			$b4
3948   2A94             L2a94:
3949   2A94 A9 60       				lda			#$60
3950   2A96 18          				clc
3951   2A97 65 B4       				adc			$b4
3952   2A99 85 B4       				sta			$b4
3953   2A9B A5 B5       				lda			$b5
3954   2A9D 69 00       				adc			#$00
3955   2A9F 85 B5       				sta			$b5
3956   2AA1 C6 42       				dec			$42
3957   2AA3 10 EF       				bpl			L2a94
3958   2AA5 A0 00       				ldy			#$00
3959   2AA7             L2aa7:
3960   2AA7 C8          				iny
3961   2AA8 C8          				iny
3962   2AA9 C8          				iny
3963   2AAA C6 41       				dec			$41
3964   2AAC 10 F9       				bpl			L2aa7
3965   2AAE 98          				tya
3966   2AAF 18          				clc
3967   2AB0 65 B4       				adc			$b4
3968   2AB2 85 B4       				sta			$b4
3969   2AB4 60          				rts
3970   2AB5             L2ab5:
3971   2AB5 A5 80       				lda			$80
3972   2AB7 85 01       				sta			$01
3973   2AB9 A9 00       				lda			#$00
3974   2ABB 85 83       				sta			$83
3975   2ABD 85 84       				sta			$84
3976   2ABF             L2abf:
3977   2ABF 20 C7 2A    				jsr			L2ac7
3978   2AC2 C6 01       				dec			$01
3979   2AC4 10 F9       				bpl			L2abf
3980   2AC6 60          				rts
3981   2AC7             L2ac7:
3982   2AC7 20 4C 2E    				jsr			L2e4c
3983   2ACA 29 3F       				and			#$3f
3984   2ACC C9 2C       				cmp			#$2c
3985   2ACE 90 01       				bcc			L2ad1
3986   2AD0 4A          				lsr			a
3987   2AD1             L2ad1:
3988   2AD1 69 12       				adc			#$12
3989   2AD3 20 5C 2A    				jsr			L2a5c
3990   2AD6 B0 EF       				bcs			L2ac7
3991   2AD8 A6 84       				ldx			$84
3992   2ADA 9D 30 03    				sta			L0330, x
3993   2ADD 20 6A 2A    				jsr			L2a6a
3994   2AE0 20 7E 2A    				jsr			L2a7e
3995   2AE3 A5 B4       				lda			$b4
3996   2AE5 A4 83       				ldy			$83
3997   2AE7 99 50 03    				sta			L0350, y
3998   2AEA A5 B5       				lda			$b5
3999   2AEC C8          				iny
4000   2AED 99 50 03    				sta			L0350, y
4001   2AF0 88          				dey
4002   2AF1 20 70 29    				jsr			L2970
4003   2AF4 20 1E 2A    				jsr			L2a1e
4004   2AF7 B0 CE       				bcs			L2ac7
4005   2AF9 E6 84       				inc			$84
4006   2AFB E6 83       				inc			$83
4007   2AFD E6 83       				inc			$83
4008   2AFF 60          				rts
4009   2B00             
4010   2B00             				;; Draw language string a
4011   2B00             L2b00:
4012   2B00 0A          				asl			a										; a*2
4013   2B01 0A          				asl			a										; a*4
4014   2B02 A8          				tay													; y = a*4
4015   2B03 AD 03 51    				lda			$5103								; Interrupt condition
4016   2B06 29 03       				and			#$03									; Mask language
4017   2B08 0A          				asl			a										; lang << 1
4018   2B09 AA          				tax													; X = lang << 1
4019   2B0A             
4020   2B0A BD 01 3F    				lda			L3f01, x
4021   2B0D 85 06       				sta			$06									; Language ptr lo
4022   2B0F E8          				inx
4023   2B10 BD 01 3F    				lda			L3f01, x
4024   2B13 85 07       				sta			$07									; Language ptr hi
4025   2B15             
4026   2B15 B1 06       				lda			($06), y
4027   2B17 85 0E       				sta			$0e									; Screen loc lo
4028   2B19 C8          				iny
4029   2B1A B1 06       				lda			($06), y
4030   2B1C 85 0F       				sta			$0f									; Screen loc hi
4031   2B1E C8          				iny
4032   2B1F             
4033   2B1F B1 06       				lda			($06), y
4034   2B21 85 14       				sta			$14									; String log lo
4035   2B23 C8          				iny
4036   2B24 B1 06       				lda			($06), y
4037   2B26 85 15       				sta			$15									; String loc hi
4038   2B28             				
4039   2B28 A5 A7       				lda			$a7
4040   2B2A 29 04       				and			#$04
4041   2B2C D0 0D       				bne			L2b3b
4042   2B2E             
4043   2B2E A0 00       				ldy			#$00
4044   2B30             L2b30:
4045   2B30 B1 14       				lda			($14), y
4046   2B32 D0 01       				bne			L2b35
4047   2B34 60          				rts
4048   2B35             L2b35:
4049   2B35 91 0E       				sta			($0e), y
4050   2B37 C8          				iny
4051   2B38 4C 30 2B    				jmp			L2b30
4052   2B3B             
4053   2B3B             L2b3b:
4054   2B3B A5 0E       				lda			$0e
4055   2B3D 49 FF       				eor			#$ff
4056   2B3F 85 0E       				sta			$0e
4057   2B41 A5 0F       				lda			$0f
4058   2B43 49 FF       				eor			#$ff
4059   2B45 29 03       				and			#$03
4060   2B47 09 40       				ora			#$40
4061   2B49 85 0F       				sta			$0f
4062   2B4B A0 00       				ldy			#$00
4063   2B4D 84 02       				sty			$02
4064   2B4F             L2b4f:
4065   2B4F B1 14       				lda			($14), y
4066   2B51 D0 01       				bne			L2b54
4067   2B53 60          				rts
4068   2B54             L2b54:
4069   2B54 A0 00       				ldy			#$00
4070   2B56 91 0E       				sta			($0e), y
4071   2B58 C6 0E       				dec			$0e
4072   2B5A E6 02       				inc			$02
4073   2B5C A4 02       				ldy			$02
4074   2B5E 4C 4F 2B    				jmp			L2b4f
4075   2B61             
4076   2B61             				;; Draw DEPOSIT COIN
4077   2B61             L2b61:
4078   2B61 A9 05       				lda			#$05										; DEPOSIT COIN
4079   2B63 20 00 2B    				jsr			L2b00										; Draw language string a
4080   2B66 A5 A1       				lda			$a1											; Credits
4081   2B68 D0 01       				bne			L2b6b
4082   2B6A 60          				rts
4083   2B6B             
4084   2B6B             				;; Draw "OR PRESS START"
4085   2B6B             L2b6b:
4086   2B6B A9 06       				lda			#$06										; OR PRESS START
4087   2B6D 4C 00 2B    				jmp			L2b00										; Draw language string a
4088   2B70             
4089   2B70             
4090   2B70             				;; Draw quarter coinage
4091   2B70             L2b70:
4092   2B70 AD 00 51    				lda			$5100										; DIPs
4093   2B73 49 FF       				eor			#$ff										; Invert
4094   2B75 29 18       				and			#$18										; Mask bits
4095   2B77 F0 09       				beq			L2b82										; 2P_1C
4096   2B79 C9 10       				cmp			#$10
4097   2B7B F0 0A       				beq			L2b87										; 1P_1C
4098   2B7D C9 08       				cmp			#$08
4099   2B7F F0 10       				beq			L2b91										; 1P_2C
4100   2B81 60          				rts
4101   2B82             
4102   2B82             L2b82:
4103   2B82 A9 00       				lda			#$00										; 2 players 1 coin
4104   2B84 4C 00 2B    				jmp			L2b00										; Draw language string a
4105   2B87             
4106   2B87             L2b87:
4107   2B87 A9 01       				lda			#$01										; 1 player  1 coin
4108   2B89 20 00 2B    				jsr			L2b00										; Draw language string a
4109   2B8C             
4110   2B8C A9 02       				lda			#$02										; 2 players 2 coins
4111   2B8E 4C 00 2B    				jmp			L2b00										; Draw language string a
4112   2B91             
4113   2B91             L2b91:
4114   2B91 A9 03       				lda			#$03										; 1 player  2 coins
4115   2B93 20 00 2B    				jsr			L2b00										; Draw language string a
4116   2B96             
4117   2B96 A9 04       				lda			#$04										; 2 players 4 coins
4118   2B98 4C 00 2B    				jmp			L2b00										; Draw language string a
4119   2B9B             
4120   2B9B             
4121   2B9B             L2b9b:
4122   2B9B A5 A7       				lda			$a7
4123   2B9D 09 10       				ora			#$10									; Set bit 4
4124   2B9F 85 A7       				sta			$a7
4125   2BA1             
4126   2BA1 A9 10       				lda			#$10									; TOP HIGH SCORE FOR EXTRA PLAY
4127   2BA3 4C 00 2B    				jmp			L2b00								; Draw language string a
4128   2BA6             
4129   2BA6             L2ba6:
4130   2BA6 20 25 2E    				jsr			L2e25								; Clear screen
4131   2BA9 A9 0C       				lda			#$0c
4132   2BAB 85 0E       				sta			$0e
4133   2BAD A9 0F       				lda			#$0f									; TOP HIGH SCORE FOR EXTRA PLAY
4134   2BAF 20 00 2B    				jsr			L2b00								; Draw language string a
4135   2BB2 4C 50 2D    				jmp			L2d50
4136   2BB5             
4137   2BB5             
4138   2BB5             				;; Draw pence coinage
4139   2BB5             L2bb5:
4140   2BB5 AD 00 51    				lda			$5100										; DIPs
4141   2BB8 49 FF       				eor			#$ff										; Invert
4142   2BBA 29 02       				and			#$02
4143   2BBC D0 0A       				bne			L2bc8										; Full coins	
4144   2BBE             
4145   2BBE A9 18       				lda			#$18										;	1P - 2 10p
4146   2BC0 20 00 2B    				jsr			L2b00										; Draw language string a
4147   2BC3 A9 19       				lda			#$19										; 3P - 1 50p
4148   2BC5 4C 00 2B    				jmp			L2b00										; Draw language string a
4149   2BC8             
4150   2BC8             L2bc8:
4151   2BC8 A9 16       				lda			#$16										; 1P - 1 10p
4152   2BCA 20 00 2B    				jsr			L2b00										; Draw language string a
4153   2BCD A9 17       				lda			#$17										; 6P - 1 50p
4154   2BCF 4C 00 2B    				jmp			L2b00										; Draw language string a
4155   2BD2             
4156   2BD2             L2bd2:
4157   2BD2 A5 BE       				lda			$be
4158   2BD4 C5 AF       				cmp			$af
4159   2BD6 F0 03       				beq			L2bdb
4160   2BD8 B0 08       				bcs			L2be2
4161   2BDA 60          				rts
4162   2BDB             L2bdb:
4163   2BDB A5 BD       				lda			$bd
4164   2BDD C5 AE       				cmp			$ae
4165   2BDF B0 01       				bcs			L2be2
4166   2BE1 60          				rts
4167   2BE2             L2be2:
4168   2BE2 A5 BD       				lda			$bd
4169   2BE4 85 AE       				sta			$ae
4170   2BE6 A5 BE       				lda			$be
4171   2BE8 85 AF       				sta			$af
4172   2BEA A5 A7       				lda			$a7
4173   2BEC 29 FC       				and			#$fc
4174   2BEE 85 A7       				sta			$a7
4175   2BF0 A5 BF       				lda			$bf
4176   2BF2 29 03       				and			#$03
4177   2BF4 05 A7       				ora			$a7
4178   2BF6 85 A7       				sta			$a7
4179   2BF8 60          				rts
4180   2BF9 A9 60       				lda			#$60
4181   2BFB 4C 05 2C    				jmp			L2c05
4182   2BFE             L2bfe:
4183   2BFE A9 40       				lda			#$40
4184   2C00 4C 05 2C    				jmp			L2c05
4185   2C03             L2c03:
4186   2C03 A9 20       				lda			#$20
4187   2C05             L2c05:
4188   2C05 18          				clc
4189   2C06 65 0E       				adc			$0e
4190   2C08 85 0E       				sta			$0e
4191   2C0A A5 0F       				lda			$0f
4192   2C0C 69 00       				adc			#$00
4193   2C0E 85 0F       				sta			$0f
4194   2C10 60          				rts
4195   2C11 A9 60       				lda			#$60
4196   2C13 4C 1D 2C    				jmp			L2c1d
4197   2C16 A9 40       				lda			#$40
4198   2C18 4C 1D 2C    				jmp			L2c1d
4199   2C1B A9 20       				lda			#$20
4200   2C1D             L2c1d:
4201   2C1D 85 00       				sta			$00
4202   2C1F 38          				sec
4203   2C20 A5 0E       				lda			$0e
4204   2C22 E5 00       				sbc			$00
4205   2C24 85 0E       				sta			$0e
4206   2C26 A5 0F       				lda			$0f
4207   2C28 E9 00       				sbc			#$00
4208   2C2A 85 0F       				sta			$0f
4209   2C2C 60          				rts
4210   2C2D             L2c2d:
4211   2C2D A9 40       				lda			#$40
4212   2C2F 85 0F       				sta			$0f
4213   2C31 60          				rts
4214   2C32             L2c32:
4215   2C32 A5 A7       				lda			$a7
4216   2C34 29 04       				and			#$04
4217   2C36 D0 03       				bne			L2c3b
4218   2C38 4C CA 2C    				jmp			L2cca
4219   2C3B             L2c3b:
4220   2C3B 20 47 2C    				jsr			L2c47
4221   2C3E A9 40       				lda			#$40
4222   2C40 85 0F       				sta			$0f
4223   2C42 85 0E       				sta			$0e
4224   2C44 4C D4 2C    				jmp			L2cd4
4225   2C47             L2c47:
4226   2C47 20 2D 2C    				jsr			L2c2d
4227   2C4A A9 02       				lda			#$02
4228   2C4C 85 0E       				sta			$0e
4229   2C4E A9 E0       				lda			#$e0
4230   2C50 20 34 2D    				jsr			L2d34
4231   2C53 A9 43       				lda			#$43
4232   2C55 85 0F       				sta			$0f
4233   2C57 A9 A2       				lda			#$a2
4234   2C59 85 0E       				sta			$0e
4235   2C5B A9 E1       				lda			#$e1
4236   2C5D 20 34 2D    				jsr			L2d34
4237   2C60 20 2D 2C    				jsr			L2c2d
4238   2C63 A9 20       				lda			#$20
4239   2C65 85 0E       				sta			$0e
4240   2C67 A9 E3       				lda			#$e3
4241   2C69 20 3C 2D    				jsr			L2d3c
4242   2C6C 20 2D 2C    				jsr			L2c2d
4243   2C6F A9 21       				lda			#$21
4244   2C71 85 0E       				sta			$0e
4245   2C73 A9 E2       				lda			#$e2
4246   2C75 4C 41 2D    				jmp			L2d41
4247   2C78             
4248   2C78             L2c78:
4249   2C78 20 84 2D    				jsr			L2d84								; Set up character RAM
4250   2C7B A9 00       				lda			#$00
4251   2C7D 85 18       				sta			$18
4252   2C7F A9 48       				lda			#$48
4253   2C81 85 19       				sta			$19
4254   2C83             L2c83:
4255   2C83 20 8B 2C    				jsr			L2c8b
4256   2C86             
4257   2C86 C9 4D       				cmp			#$4d
4258   2C88 90 F9       				bcc			L2c83
4259   2C8A 60          				rts
4260   2C8B             
4261   2C8B             L2c8b:
4262   2C8B A2 07       				ldx			#$07
4263   2C8D A0 00       				ldy			#$00
4264   2C8F 84 42       				sty			$42									; Stash y
4265   2C91 A0 07       				ldy			#$07
4266   2C93 84 02       				sty			$02
4267   2C95             L2c95:
4268   2C95 A9 08       				lda			#$08
4269   2C97 85 03       				sta			$03
4270   2C99 A4 42       				ldy			$42									; Restore y
4271   2C9B             				
4272   2C9B B1 18       				lda			($18), y
4273   2C9D             L2c9d:
4274   2C9D 6A          				ror			a
4275   2C9E 26 41       				rol			$41
4276   2CA0 C6 03       				dec			$03
4277   2CA2 D0 F9       				bne			L2c9d
4278   2CA4             
4279   2CA4 A5 41       				lda			$41
4280   2CA6 A4 02       				ldy			$02
4281   2CA8 99 F0 03    				sta			L03f0, y
4282   2CAB C6 02       				dec			$02
4283   2CAD E6 42       				inc			$42
4284   2CAF CA          				dex
4285   2CB0 10 E3       				bpl			L2c95
4286   2CB2             
4287   2CB2 A0 07       				ldy			#$07
4288   2CB4             L2cb4:
4289   2CB4 B9 F0 03    				lda			L03f0, y
4290   2CB7 91 18       				sta			($18), y
4291   2CB9 88          				dey
4292   2CBA 10 F8       				bpl			L2cb4
4293   2CBC A5 18       				lda			$18
4294   2CBE 18          				clc
4295   2CBF 69 08       				adc			#$08
4296   2CC1 85 18       				sta			$18
4297   2CC3 A5 19       				lda			$19
4298   2CC5 69 00       				adc			#$00
4299   2CC7 85 19       				sta			$19
4300   2CC9 60          				rts
4301   2CCA             
4302   2CCA             L2cca:
4303   2CCA 20 02 2D    				jsr			L2d02
4304   2CCD 20 2D 2C    				jsr			L2c2d
4305   2CD0 A9 80       				lda			#$80
4306   2CD2 85 0E       				sta			$0e
4307   2CD4             L2cd4:
4308   2CD4 A2 09       				ldx			#$09
4309   2CD6             L2cd6:
4310   2CD6 A9 BA       				lda			#$ba
4311   2CD8 20 EA 2C    				jsr			L2cea
4312   2CDB 20 03 2C    				jsr			L2c03
4313   2CDE A9 BC       				lda			#$bc
4314   2CE0 20 EA 2C    				jsr			L2cea
4315   2CE3 20 FE 2B    				jsr			L2bfe
4316   2CE6 CA          				dex
4317   2CE7 D0 ED       				bne			L2cd6
4318   2CE9 60          				rts
4319   2CEA             L2cea:
4320   2CEA A0 03       				ldy			#$03
4321   2CEC 85 03       				sta			$03
4322   2CEE 85 04       				sta			$04
4323   2CF0 E6 04       				inc			$04
4324   2CF2             L2cf2:
4325   2CF2 A5 03       				lda			$03
4326   2CF4 91 0E       				sta			($0e), y
4327   2CF6 C8          				iny
4328   2CF7 A5 04       				lda			$04
4329   2CF9 91 0E       				sta			($0e), y
4330   2CFB C8          				iny
4331   2CFC C8          				iny
4332   2CFD C0 1D       				cpy			#$1d
4333   2CFF 90 F1       				bcc			L2cf2
4334   2D01 60          				rts
4335   2D02             L2d02:
4336   2D02 20 2D 2C    				jsr			L2c2d
4337   2D05 A9 42       				lda			#$42
4338   2D07 85 0E       				sta			$0e
4339   2D09 A9 E0       				lda			#$e0
4340   2D0B 20 34 2D    				jsr			L2d34
4341   2D0E A9 43       				lda			#$43
4342   2D10 85 0F       				sta			$0f
4343   2D12 A9 E2       				lda			#$e2
4344   2D14 85 0E       				sta			$0e
4345   2D16 A9 E1       				lda			#$e1
4346   2D18 20 34 2D    				jsr			L2d34
4347   2D1B 20 2D 2C    				jsr			L2c2d
4348   2D1E A9 60       				lda			#$60
4349   2D20 85 0E       				sta			$0e
4350   2D22 A9 E3       				lda			#$e3
4351   2D24 20 3C 2D    				jsr			L2d3c
4352   2D27 20 2D 2C    				jsr			L2c2d
4353   2D2A A9 61       				lda			#$61
4354   2D2C 85 0E       				sta			$0e
4355   2D2E A9 E2       				lda			#$e2
4356   2D30 20 41 2D    				jsr			L2d41
4357   2D33 60          				rts
4358   2D34             L2d34:
4359   2D34 A0 1C       				ldy			#$1c
4360   2D36             L2d36:
4361   2D36 88          				dey
4362   2D37 91 0E       				sta			($0e), y
4363   2D39 D0 FB       				bne			L2d36
4364   2D3B 60          				rts
4365   2D3C             L2d3c:
4366   2D3C A0 1E       				ldy			#$1e
4367   2D3E 4C 43 2D    				jmp			L2d43
4368   2D41             L2d41:
4369   2D41 A0 00       				ldy			#$00
4370   2D43             L2d43:
4371   2D43 A2 1C       				ldx			#$1c
4372   2D45             L2d45:
4373   2D45 91 0E       				sta			($0e), y
4374   2D47 48          				pha
4375   2D48 20 03 2C    				jsr			L2c03
4376   2D4B 68          				pla
4377   2D4C CA          				dex
4378   2D4D D0 F6       				bne			L2d45
4379   2D4F 60          				rts
4380   2D50             
4381   2D50             				;; Delay
4382   2D50             L2d50:
4383   2D50 20 53 2D    				jsr			L2d53
4384   2D53             L2d53:
4385   2D53 20 56 2D    				jsr			L2d56
4386   2D56             L2d56:
4387   2D56 20 59 2D    				jsr			L2d59
4388   2D59             L2d59:
4389   2D59 20 5C 2D    				jsr			L2d5c
4390   2D5C             L2d5c:
4391   2D5C A9 00       				lda			#$00
4392   2D5E 85 16       				sta			$16
4393   2D60 85 17       				sta			$17
4394   2D62             L2d62:
4395   2D62 E6 16       				inc			$16
4396   2D64             L2d64:
4397   2D64 E6 17       				inc			$17
4398   2D66 A9 26       				lda			#$26
4399   2D68 C5 17       				cmp			$17
4400   2D6A D0 F8       				bne			L2d64								; Loop
4401   2D6C C5 16       				cmp			$16
4402   2D6E D0 F2       				bne			L2d62								; Loop
4403   2D70 60          				rts
4404   2D71             
4405   2D71             L2d71:
4406   2D71 AD 00 51    				lda			$5100
4407   2D74 49 FF       				eor			#$ff
4408   2D76 29 60       				and			#$60										; Mask D6,5
4409   2D78 4A          				lsr			a												; a>>1
4410   2D79 4A          				lsr			a												; a>>2
4411   2D7A 4A          				lsr			a												; a>>3
4412   2D7B 4A          				lsr			a												; a>>4
4413   2D7C 4A          				lsr			a												; a>>5
4414   2D7D AA          				tax
4415   2D7E BD 95 32    				lda			L3295, x
4416   2D81 85 C1       				sta			$c1
4417   2D83 60          				rts
4418   2D84             
4419   2D84             				;; Set up character RAM
4420   2D84             				;; Clear char rams
4421   2D84             L2d84:
4422   2D84 A9 00       				lda			#$00
4423   2D86 AA          				tax
4424   2D87             L2d87:
4425   2D87 9D 00 48    				sta			$4800, x
4426   2D8A 9D 00 49    				sta			$4900, x
4427   2D8D 9D 00 4A    				sta			$4a00, x
4428   2D90 9D 00 4B    				sta			$4b00, x
4429   2D93 9D 00 4C    				sta			$4c00, x
4430   2D96 9D 00 4D    				sta			$4d00, x
4431   2D99 9D 00 4E    				sta			$4e00, x
4432   2D9C 9D 00 4F    				sta			$4f00, x
4433   2D9F CA          				dex
4434   2DA0 D0 E5       				bne			L2d87								; Loop
4435   2DA2             
4436   2DA2             				;; Copy 10 chars
4437   2DA2 A2 50       				ldx			#$50
4438   2DA4             L2da4:
4439   2DA4 BD 65 31    				lda			L3165, x							; Numbers
4440   2DA7 9D 80 49    				sta			$4980, x							; Chars $30-39
4441   2DAA CA          				dex
4442   2DAB 10 F7       				bpl			L2da4
4443   2DAD             
4444   2DAD             				;; Copy 27 chars
4445   2DAD             				;; Alphabet + @
4446   2DAD A2 D7       				ldx			#$d7									; Change this to $ef
4447   2DAF             L2daf:
4448   2DAF BD B5 31    				lda			L31b5, x							; Letters
4449   2DB2 9D 08 4A    				sta			$4a08, x							; Chars $41-5b
4450   2DB5 CA          				dex
4451   2DB6 E0 FF       				cpx			#$ff
4452   2DB8 D0 F5       				bne			L2daf
4453   2DBA             
4454   2DBA             				;; Copy 4 chars
4455   2DBA             				;; Car directions
4456   2DBA A2 1F       				ldx			#$1f
4457   2DBC             L2dbc:
4458   2DBC BD 15 30    				lda			L3015, x
4459   2DBF 9D 20 4F    				sta			$4f20, x							; Chars $e4-e7
4460   2DC2 CA          				dex
4461   2DC3 10 F7       				bpl			L2dbc
4462   2DC5             
4463   2DC5             				;; Horizonal hash
4464   2DC5 A9 AA       				lda			#$aa
4465   2DC7 8D 06 4F    				sta			$4f06								; Char $e0
4466   2DCA 8D 09 4F    				sta			$4f09								; Char $e1
4467   2DCD             
4468   2DCD A9 55       				lda			#$55
4469   2DCF 8D 07 4F    				sta			$4f07								; Char $e0
4470   2DD2 8D 08 4F    				sta			$4f08								; Char $e1
4471   2DD5             
4472   2DD5             				;; Copy 2 chars
4473   2DD5             				;; Vertical walls
4474   2DD5 A2 0F       				ldx			#$0f
4475   2DD7             L2dd7:
4476   2DD7 BD 95 30    				lda			L3095, x
4477   2DDA 9D 10 4F    				sta			$4f10, x							; Chars $e2-e3
4478   2DDD CA          				dex
4479   2DDE 10 F7       				bpl			L2dd7
4480   2DE0             
4481   2DE0             				;; Copy 12 chars
4482   2DE0             				;; Corner types
4483   2DE0 A2 5F       				ldx			#$5f
4484   2DE2             L2de2:
4485   2DE2 BD 35 30    				lda			L3035, x
4486   2DE5 9D 00 4D    				sta			$4d00, x							; Chars $a0-ab
4487   2DE8 CA          				dex
4488   2DE9 10 F7       				bpl			L2de2
4489   2DEB             
4490   2DEB             				;; Copy 4 chars
4491   2DEB             				;;
4492   2DEB A2 1F       				ldx			#$1f
4493   2DED             L2ded:
4494   2DED BD A5 30    				lda			L30a5, x
4495   2DF0 9D D0 4D    				sta			$4dd0, x							; Chars $ba-bd
4496   2DF3 CA          				dex
4497   2DF4 10 F7       				bpl			L2ded
4498   2DF6             
4499   2DF6             				;; Copy 5 chars
4500   2DF6             				;;
4501   2DF6 A2 27       				ldx			#$27
4502   2DF8             L2df8:
4503   2DF8 BD C5 30    				lda			L30c5, x
4504   2DFB 9D 80 4D    				sta			$4d80, x							; Chars	$b0-b4
4505   2DFE 9D 50 49    				sta			$4950, x							; Chars	$2a-2e
4506   2E01 CA          				dex
4507   2E02 10 F4       				bpl			L2df8
4508   2E04             
4509   2E04             				;; Copy 1 chars
4510   2E04             				;;
4511   2E04 A2 07       				ldx			#$07
4512   2E06             L2e06:
4513   2E06 BD 85 32    				lda			L3285, x							; @
4514   2E09 9D F8 4A    				sta			$4af8, x							; Char $5f
4515   2E0C BD 8D 32    				lda			L328d, x							; #
4516   2E0F 9D F0 4A    				sta			$4af0, x							; Char $5e
4517   2E12 CA          				dex
4518   2E13 10 F1       				bpl			L2e06
4519   2E15 60          				rts
4520   2E16             
4521   2E16             				;; Split nybbles
4522   2E16             L2e16:
4523   2E16 85 52       				sta			$52									; Store
4524   2E18 4A          				lsr			a
4525   2E19 4A          				lsr			a
4526   2E1A 4A          				lsr			a
4527   2E1B 4A          				lsr			a										; a>>4
4528   2E1C 48          				pha													; Push hi nybble
4529   2E1D A5 52       				lda			$52
4530   2E1F 29 0F       				and			#$0f									; Mask lo nybble
4531   2E21 85 52       				sta			$52
4532   2E23 68          				pla													; Retrive hi nybble
4533   2E24 60          				rts
4534   2E25             
4535   2E25             				;; Clear screen
4536   2E25             L2e25:
4537   2E25 A9 20       				lda			#$20
4538   2E27 A2 00       				ldx			#$00
4539   2E29             L2e29:
4540   2E29 9D 00 40    				sta			$4000, x
4541   2E2C 9D 00 41    				sta			$4100, x
4542   2E2F 9D 00 42    				sta			$4200, x
4543   2E32 9D 00 43    				sta			$4300, x
4544   2E35 CA          				dex
4545   2E36 D0 F1       				bne			L2e29
4546   2E38 60          				rts
4547   2E39             
4548   2E39             L2e39:
4549   2E39 A5 62       				lda			$62
4550   2E3B 85 60       				sta			$60
4551   2E3D A5 63       				lda			$63
4552   2E3F F0 0B       				beq			L2e4c
4553   2E41 C9 FD       				cmp			#$fd
4554   2E43 B0 07       				bcs			L2e4c
4555   2E45 85 62       				sta			$62
4556   2E47 65 60       				adc			$60
4557   2E49 85 63       				sta			$63
4558   2E4B 60          				rts
4559   2E4C             L2e4c:
4560   2E4C 98          				tya
4561   2E4D 48          				pha
4562   2E4E A0 23       				ldy			#$23
4563   2E50             L2e50:
4564   2E50 A5 63       				lda			$63
4565   2E52 F0 0D       				beq			L2e61
4566   2E54 29 60       				and			#$60
4567   2E56 C9 20       				cmp			#$20
4568   2E58 F0 07       				beq			L2e61
4569   2E5A C9 40       				cmp			#$40
4570   2E5C F0 03       				beq			L2e61
4571   2E5E 18          				clc
4572   2E5F 90 01       				bcc			L2e62
4573   2E61             L2e61:
4574   2E61 38          				sec
4575   2E62             L2e62:
4576   2E62 26 62       				rol			$62
4577   2E64 26 63       				rol			$63
4578   2E66 88          				dey
4579   2E67 D0 E7       				bne			L2e50
4580   2E69 68          				pla
4581   2E6A A8          				tay
4582   2E6B A5 62       				lda			$62
4583   2E6D 60          				rts
4584   2E6E             
4585   2E6E A9 4E       				lda			#$4e
4586   2E70 85 43       				sta			$43
4587   2E72 A0 08       				ldy			#$08
4588   2E74 D0 06       				bne			L2e7c
4589   2E76             
4590   2E76 A0 02       				ldy			#$02
4591   2E78             L2e78:
4592   2E78 A9 48       				lda			#$48
4593   2E7A 85 43       				sta			$43					; ($42-43) = 48xx
4594   2E7C             L2e7c:
4595   2E7C EA          				nop
4596   2E7D             
4597   2E7D             				;; Get ($40-$41) from table
4598   2E7D             				;; Pts to enemy chars
4599   2E7D B9 4D 31    				lda			L314d, y
4600   2E80 85 40       				sta			$40
4601   2E82 C8          				iny
4602   2E83 B9 4D 31    				lda			L314d, y
4603   2E86 85 41       				sta			$41
4604   2E88 EA          				nop
4605   2E89             
4606   2E89 20 DE 2E    				jsr			L2ede				; Copy char to $ff spot, $03f0, $0ef8
4607   2E8C             
4608   2E8C A9 00       				lda			#$00
4609   2E8E 85 42       				sta			$42					; ($42-43) = 4800
4610   2E90             
4611   2E90 20 B3 2F    				jsr			L2fb3				; $03e0-$03ef to chars
4612   2E93 A2 03       				ldx			#$03					; 3 loops
4613   2E95 86 86       				stx			$86					; Loop counter
4614   2E97             L2e97:
4615   2E97 20 EB 2F    				jsr			L2feb				; Scroll $03e0-$03ef up twice
4616   2E9A 20 B3 2F    				jsr			L2fb3				; $03e0-$03ef to chars
4617   2E9D C6 86       				dec			$86
4618   2E9F D0 F6       				bne			L2e97				; Loop
4619   2EA1             
4620   2EA1 20 F4 2E    				jsr			L2ef4				; HFlip $03f0 char to $03e0
4621   2EA4 20 B3 2F    				jsr			L2fb3				; $03e0-$03ef to chars
4622   2EA7             
4623   2EA7 A2 03       				ldx			#$03					; 3 Loops
4624   2EA9 86 86       				stx			$86					; Loop counter
4625   2EAB             L2eab:
4626   2EAB 20 01 30    				jsr			L3001
4627   2EAE 20 B3 2F    				jsr			L2fb3
4628   2EB1 C6 86       				dec			$86
4629   2EB3 D0 F6       				bne			L2eab				; Loop
4630   2EB5             
4631   2EB5 20 02 2F    				jsr			L2f02
4632   2EB8 20 B3 2F    				jsr			L2fb3
4633   2EBB A2 03       				ldx			#$03
4634   2EBD 86 86       				stx			$86
4635   2EBF             L2ebf:
4636   2EBF 20 DB 2F    				jsr			L2fdb
4637   2EC2 20 B3 2F    				jsr			L2fb3
4638   2EC5 C6 86       				dec			$86
4639   2EC7 D0 F6       				bne			L2ebf
4640   2EC9 20 2E 2F    				jsr			L2f2e
4641   2ECC 20 B3 2F    				jsr			L2fb3
4642   2ECF A2 03       				ldx			#$03
4643   2ED1 86 86       				stx			$86
4644   2ED3             L2ed3:
4645   2ED3 20 CB 2F    				jsr			L2fcb
4646   2ED6 20 B3 2F    				jsr			L2fb3
4647   2ED9 C6 86       				dec			$86
4648   2EDB D0 F6       				bne			L2ed3
4649   2EDD 60          				rts
4650   2EDE             
4651   2EDE             				;; Copy char to $ff, main RAM
4652   2EDE             L2ede:
4653   2EDE A0 07       				ldy			#$07
4654   2EE0             L2ee0:
4655   2EE0 B1 40       				lda			($40), y							; Get byte from table
4656   2EE2 99 E8 03    				sta			L03e8, y							; Store to main RAM
4657   2EE5 99 F0 03    				sta			L03f0, y							; Store to main RAM
4658   2EE8 99 80 4F    				sta			$4f80, y							; Char $ff
4659   2EEB A9 00       				lda			#$00
4660   2EED 99 E0 03    				sta			L03e0, y							; Clear in main RAM
4661   2EF0 88          				dey
4662   2EF1 10 ED       				bpl			L2ee0
4663   2EF3 60          				rts
4664   2EF4             
4665   2EF4             
4666   2EF4             L2ef4:
4667   2EF4 20 85 2F    				jsr			L2f85
4668   2EF7             L2ef7:
4669   2EF7 A0 07       				ldy			#$07
4670   2EF9             L2ef9:
4671   2EF9 A9 00       				lda			#$00
4672   2EFB 99 E8 03    				sta			L03e8, y
4673   2EFE 88          				dey
4674   2EFF D0 F8       				bne			L2ef9
4675   2F01 60          				rts
4676   2F02             L2f02:
4677   2F02 20 0C 2F    				jsr			L2f0c
4678   2F05 20 5A 2F    				jsr			L2f5a
4679   2F08 20 F7 2E    				jsr			L2ef7
4680   2F0B 60          				rts
4681   2F0C             L2f0c:
4682   2F0C A0 07       				ldy			#$07
4683   2F0E             L2f0e:
4684   2F0E B9 F0 03    				lda			L03f0, y
4685   2F11 99 E0 03    				sta			L03e0, y
4686   2F14 A9 00       				lda			#$00
4687   2F16 99 E8 03    				sta			L03e8, y
4688   2F19 88          				dey
4689   2F1A 10 F2       				bpl			L2f0e
4690   2F1C 60          				rts
4691   2F1D A0 07       				ldy			#$07
4692   2F1F             L2f1f:
4693   2F1F B9 F0 03    				lda			L03f0, y
4694   2F22 99 E8 03    				sta			L03e8, y
4695   2F25 A9 00       				lda			#$00
4696   2F27 99 E0 03    				sta			L03e0, y
4697   2F2A 88          				dey
4698   2F2B 10 F2       				bpl			L2f1f
4699   2F2D 60          				rts
4700   2F2E             L2f2e:
4701   2F2E 20 0C 2F    				jsr			L2f0c
4702   2F31 20 3F 2F    				jsr			L2f3f
4703   2F34 A0 07       				ldy			#$07
4704   2F36             L2f36:
4705   2F36 A9 00       				lda			#$00
4706   2F38 99 E0 03    				sta			L03e0, y
4707   2F3B 88          				dey
4708   2F3C 10 F8       				bpl			L2f36
4709   2F3E 60          				rts
4710   2F3F             L2f3f:
4711   2F3F A0 00       				ldy			#$00
4712   2F41             L2f41:
4713   2F41 B9 E0 03    				lda			L03e0, y
4714   2F44 20 4D 2F    				jsr			L2f4d
4715   2F47 C8          				iny
4716   2F48 C0 08       				cpy			#$08
4717   2F4A D0 F5       				bne			L2f41
4718   2F4C 60          				rts
4719   2F4D             L2f4d:
4720   2F4D A2 07       				ldx			#$07
4721   2F4F 85 03       				sta			$03
4722   2F51             L2f51:
4723   2F51 26 03       				rol			$03
4724   2F53 3E E8 03    				rol			L03e8, x
4725   2F56 CA          				dex
4726   2F57 10 F8       				bpl			L2f51
4727   2F59 60          				rts
4728   2F5A             L2f5a:
4729   2F5A A0 00       				ldy			#$00
4730   2F5C             L2f5c:
4731   2F5C B9 E0 03    				lda			L03e0, y
4732   2F5F 20 78 2F    				jsr			L2f78
4733   2F62 C8          				iny
4734   2F63 C0 08       				cpy			#$08
4735   2F65 D0 F5       				bne			L2f5c
4736   2F67 A0 07       				ldy			#$07
4737   2F69             L2f69:
4738   2F69 B9 E8 03    				lda			L03e8, y
4739   2F6C 99 E0 03    				sta			L03e0, y
4740   2F6F A9 00       				lda			#$00
4741   2F71 99 E8 03    				sta			L03e8, y
4742   2F74 88          				dey
4743   2F75 10 F2       				bpl			L2f69
4744   2F77 60          				rts
4745   2F78             L2f78:
4746   2F78 A2 07       				ldx			#$07
4747   2F7A 85 03       				sta			$03
4748   2F7C             L2f7c:
4749   2F7C 26 03       				rol			$03
4750   2F7E 7E E8 03    				ror			L03e8, x
4751   2F81 CA          				dex
4752   2F82 10 F8       				bpl			L2f7c
4753   2F84 60          				rts
4754   2F85             
4755   2F85             				;; Flip $03f0 char right-left into $03e0
4756   2F85             L2f85:
4757   2F85 A2 07       				ldx			#$07
4758   2F87 A0 00       				ldy			#$00
4759   2F89 84 45       				sty			$45									; Index
4760   2F8B A0 07       				ldy			#$07									; 7 (8) loops
4761   2F8D 84 02       				sty			$02									; Outer loop counter
4762   2F8F             L2f8f:
4763   2F8F A9 08       				lda			#$08									; 8 loops
4764   2F91 85 03       				sta			$03									; Inner Loop counter
4765   2F93             
4766   2F93 A4 45       				ldy			$45
4767   2F95 B9 F0 03    				lda			L03f0, y
4768   2F98             L2f98:
4769   2F98 6A          				ror			a
4770   2F99 26 44       				rol			$44
4771   2F9B C6 03       				dec			$03
4772   2F9D D0 F9       				bne			L2f98								; Loop
4773   2F9F             
4774   2F9F A5 44       				lda			$44
4775   2FA1 A4 02       				ldy			$02
4776   2FA3 99 E0 03    				sta			L03e0, y
4777   2FA6 A9 00       				lda			#$00
4778   2FA8 99 E8 03    				sta			L03e8, y
4779   2FAB C6 02       				dec			$02
4780   2FAD E6 45       				inc			$45
4781   2FAF CA          				dex
4782   2FB0 10 DD       				bpl			L2f8f								; Loop
4783   2FB2 60          				rts
4784   2FB3             
4785   2FB3             				;; Copy 16 bytes to char code @ ($42-43)
4786   2FB3             L2fb3:
4787   2FB3 A0 0F       				ldy			#$0f
4788   2FB5             L2fb5:
4789   2FB5 B9 E0 03    				lda			L03e0, y
4790   2FB8 91 42       				sta			($42), y
4791   2FBA 88          				dey
4792   2FBB 10 F8       				bpl			L2fb5
4793   2FBD 18          				clc
4794   2FBE             
4795   2FBE             				;; ($42-43) += $10
4796   2FBE A5 42       				lda			$42
4797   2FC0 69 10       				adc			#$10
4798   2FC2 85 42       				sta			$42
4799   2FC4 A5 43       				lda			$43
4800   2FC6 69 00       				adc			#$00
4801   2FC8 85 43       				sta			$43
4802   2FCA 60          				rts
4803   2FCB             
4804   2FCB             
4805   2FCB             L2fcb:
4806   2FCB 20 CE 2F    				jsr			L2fce
4807   2FCE             L2fce:
4808   2FCE A2 07       				ldx			#$07
4809   2FD0             L2fd0:
4810   2FD0 18          				clc
4811   2FD1 1E E8 03    				asl			L03e8, x
4812   2FD4 3E E0 03    				rol			L03e0, x
4813   2FD7 CA          				dex
4814   2FD8 10 F6       				bpl			L2fd0
4815   2FDA 60          				rts
4816   2FDB             L2fdb:
4817   2FDB 20 DE 2F    				jsr			L2fde
4818   2FDE             L2fde:
4819   2FDE A2 07       				ldx			#$07
4820   2FE0             L2fe0:
4821   2FE0 18          				clc
4822   2FE1 5E E0 03    				lsr			L03e0, x
4823   2FE4 7E E8 03    				ror			L03e8, x
4824   2FE7 CA          				dex
4825   2FE8 10 F6       				bpl			L2fe0
4826   2FEA 60          				rts
4827   2FEB             
4828   2FEB             				;; ($03e0-$03ef) <= ($03e2-$03ef, $00, $00)
4829   2FEB             L2feb:
4830   2FEB 20 EE 2F    				jsr			L2fee								; Do this twice
4831   2FEE             
4832   2FEE             				;; Scroll 2 chars in memory up
4833   2FEE             L2fee:
4834   2FEE A2 00       				ldx			#$00
4835   2FF0             L2ff0:
4836   2FF0 BD E1 03    				lda			L03e1, x
4837   2FF3 9D E0 03    				sta			L03e0, x
4838   2FF6 E8          				inx
4839   2FF7 E0 0F       				cpx			#$0f
4840   2FF9 D0 F5       				bne			L2ff0								; Loop
4841   2FFB A9 00       				lda			#$00
4842   2FFD 8D EF 03    				sta			L03ef								; Clear final byte
4843   3000 60          				rts
4844   3001             
4845   3001             
4846   3001             L3001:
4847   3001 20 04 30    				jsr			L3004
4848   3004             L3004:
4849   3004 A2 0E       				ldx			#$0e
4850   3006             L3006:
4851   3006 BD E0 03    				lda			L03e0, x
4852   3009 9D E1 03    				sta			L03e1, x
4853   300C CA          				dex
4854   300D 10 F7       				bpl			L3006
4855   300F A9 00       				lda			#$00
4856   3011 8D E0 03    				sta			L03e0
4857   3014 60          				rts
4858   3015             
4859   3015             				;;
4860   3015             				;; Main character codes
4861   3015             				;;
4862   3015             
4863   3015             .include "specchar.asm"
0001+  3015             ;;			.org		$3015		
0002+  3015             
0003+  3015             				;; Colors from MAME
0004+  3015             				;; Actual = $00 = R, $40 = Y, $80 = G, $c0 = Y
0005+  3015             				
0006+  3015             				;; Codes
0007+  3015             				;; $00 - $07		= Red Enemies up
0008+  3015             				;; $08 - $0f		= Red Enemies down
0009+  3015             				;; $10 - $17		= Red Enemies right
0010+  3015             				;; $18 - $1f		= Red Enemies left
0011+  3015             				;; $2a - $2e    = Red walls
0012+  3015             				;; $30 - $39		= Red Numbers
0013+  3015             				;; $41 - $5a    = Wht Letters
0014+  3015             				;; $5e - $5f    = Wht Symbol
0015+  3015             				;; $60 - $67		= Wht Missile up
0016+  3015             				;; $68 - $6f		= Wht Missile down
0017+  3015             				;; $70 - $77		= Wht Missile right
0018+  3015             				;; $78 - $7f		= Wht Missile left
0019+  3015             
0020+  3015             				;; $80 - $87		= Grn Enemy up
0021+  3015             				;; $88 - $8f		= Grn Enemy down
0022+  3015             				;; $90 - $97		= Grn Enemy right
0023+  3015             				;; $98 - $9f		= Grn Enemy left
0024+  3015             				;; $a0 - $ab		= Grn Zooming square
0025+  3015             				;; $b0 - $b3		= Grn Hashed walls
0026+  3015             				;; $ba - $bd		= Grn Obstacles
0027+  3015             				;; $c0 - $c7		= Grn	Killer up
0028+  3015             				;; $c8 - $cf		= Grn Killer down
0029+  3015             				;; $d0 - $d7		= Grn Killer right
0030+  3015             				;; $d8 - $df		= Grn Killer left
0031+  3015             				;; $e0 - $e3		= Grn Maze border
0032+  3015             				;; $e4 - $e7		= Grn Cars
0033+  3015             				;; $e8					= Dots
0034+  3015             				;; $f0					= Grn Killer
0035+  3015             
0036+  3015             L3015:
0037+  3015 3C          				.db			$3c											; ....########....			$e4
0038+  3016 A5          				.db			$a5											; ##..##....##..## 
0039+  3017 FF          				.db			$ff											; ################ 
0040+  3018 BD          				.db			$bd											; ##..########..## 
0041+  3019 3C          				.db			$3c											; ....########.... 
0042+  301A BD          				.db			$bd											; ##..########..## 
0043+  301B FF          				.db			$ff											; ################ 
0044+  301C BD          				.db			$bd											; ##..########..## 
0045+  301D             
0046+  301D             L301d:
0047+  301D BD          				.db			$bd											; ##..########..##			$e5
0048+  301E FF          				.db			$ff											; ################ 
0049+  301F BD          				.db			$bd											; ##..########..## 
0050+  3020 3C          				.db			$3c											; ....########.... 
0051+  3021 BD          				.db			$bd											; ##..########..## 
0052+  3022 FF          				.db			$ff											; ################ 
0053+  3023 A5          				.db			$a5											; ##..##....##..## 
0054+  3024 3C          				.db			$3c											; ....########.... 
0055+  3025             
0056+  3025             L3025:
0057+  3025 EE          				.db			$ee											; ######..######..			$e6
0058+  3026 44          				.db			$44											; ..##......##.... 
0059+  3027 FF          				.db			$ff											; ################ 
0060+  3028 FD          				.db			$fd											; ############..## 
0061+  3029 FD          				.db			$fd											; ############..## 
0062+  302A FF          				.db			$ff											; ################ 
0063+  302B             ;				.db			$44											; ..##......##....
0064+  302B 4E          				.db			$4e											; ..##....######..		(Wrong!)
0065+  302C EE          				.db			$ee											; ######..######.. 
0066+  302D             
0067+  302D             L302d:
0068+  302D 77          				.db			$77											; ..######..######			$e7
0069+  302E 22          				.db			$22											; ....##......##.. 
0070+  302F FF          				.db			$ff											; ################ 
0071+  3030 BF          				.db			$bf											; ##..############ 
0072+  3031 BF          				.db			$bf											; ##..############ 
0073+  3032 FF          				.db			$ff											; ################ 
0074+  3033 22          				.db			$22											; ....##......##.. 
0075+  3034 77          				.db			$77											; ..######..###### 
0076+  3035             
0077+  3035             L3035:
0078+  3035 00          				.db			$00											; ................			$a0
0079+  3036 7F          				.db			$7f											; ..############## 
0080+  3037 7F          				.db			$7f											; ..############## 
0081+  3038 7F          				.db			$7f											; ..############## 
0082+  3039 7F          				.db			$7f											; ..############## 
0083+  303A 7F          				.db			$7f											; ..############## 
0084+  303B 7F          				.db			$7f											; ..############## 
0085+  303C 7E          				.db			$7e											; ..############.. 
0086+  303D             
0087+  303D             L303d:
0088+  303D 00          				.db			$00											; ................			$a1
0089+  303E FE          				.db			$fe											; ##############.. 
0090+  303F FE          				.db			$fe											; ##############.. 
0091+  3040 FE          				.db			$fe											; ##############.. 
0092+  3041 FE          				.db			$fe											; ##############.. 
0093+  3042 FE          				.db			$fe											; ##############.. 
0094+  3043 FE          				.db			$fe											; ##############.. 
0095+  3044 7E          				.db			$7e											; ..############.. 
0096+  3045             
0097+  3045             L3045:
0098+  3045 7E          				.db			$7e											; ..############..			$a2
0099+  3046 7F          				.db			$7f											; ..############## 
0100+  3047 7F          q				.db			$7f											; ..############## 
0101+  3048 7F          				.db			$7f											; ..############## 
0102+  3049 7F          				.db			$7f											; ..############## 
0103+  304A 7F          				.db			$7f											; ..############## 
0104+  304B 7F          				.db			$7f											; ..############## 
0105+  304C 00          				.db			$00											; ................ 
0106+  304D             
0107+  304D             L304d:
0108+  304D 7E          				.db			$7e											; ..############..			$a3
0109+  304E FE          				.db			$fe											; ##############.. 
0110+  304F FE          				.db			$fe											; ##############.. 
0111+  3050 FE          				.db			$fe											; ##############.. 
0112+  3051 FE          				.db			$fe											; ##############.. 
0113+  3052 FE          				.db			$fe											; ##############.. 
0114+  3053 FE          				.db			$fe											; ##############.. 
0115+  3054 00          				.db			$00											; ................ 
0116+  3055             
0117+  3055             L3055:
0118+  3055 00          				.db			$00											; ................			$a4
0119+  3056 7F          				.db			$7f											; ..############## 
0120+  3057 7F          				.db			$7f											; ..############## 
0121+  3058 7F          				.db			$7f											; ..############## 
0122+  3059 78          				.db			$78											; ..########...... 
0123+  305A 78          				.db			$78											; ..########...... 
0124+  305B 78          				.db			$78											; ..########...... 
0125+  305C 78          				.db			$78											; ..########...... 
0126+  305D             
0127+  305D             L305d:
0128+  305D 00          				.db			$00											; ................			$a5
0129+  305E FE          				.db			$fe											; ##############.. 
0130+  305F FE          				.db			$fe											; ##############.. 
0131+  3060 FE          				.db			$fe											; ##############.. 
0132+  3061 1E          				.db			$1e											; ......########.. 
0133+  3062 1E          				.db			$1e											; ......########.. 
0134+  3063 1E          				.db			$1e											; ......########.. 
0135+  3064 1E          				.db			$1e											; ......########.. 
0136+  3065             
0137+  3065             L3065:
0138+  3065 78          				.db			$78											; ..########......			$a6
0139+  3066 78          				.db			$78											; ..########...... 
0140+  3067 78          				.db			$78											; ..########...... 
0141+  3068 7F          				.db			$7f											; ..############## 
0142+  3069 7F          				.db			$7f											; ..############## 
0143+  306A 7F          				.db			$7f											; ..############## 
0144+  306B 7F          				.db			$7f											; ..############## 
0145+  306C 00          				.db			$00											; ................ 
0146+  306D             
0147+  306D             L306d:
0148+  306D 1E          				.db			$1e											; ......########..			$a7
0149+  306E 1E          				.db			$1e											; ......########.. 
0150+  306F 1E          				.db			$1e											; ......########.. 
0151+  3070 FE          				.db			$fe											; ##############.. 
0152+  3071 FE          				.db			$fe											; ##############.. 
0153+  3072 FE          				.db			$fe											; ##############.. 
0154+  3073 FE          				.db			$fe											; ##############.. 
0155+  3074 00          				.db			$00											; ................ 
0156+  3075             
0157+  3075             L3075:
0158+  3075 00          				.db			$00											; ................			$a8
0159+  3076 7F          				.db			$7f											; ..############## 
0160+  3077 7F          				.db			$7f											; ..############## 
0161+  3078 60          				.db			$60											; ..####.......... 
0162+  3079 60          				.db			$60											; ..####.......... 
0163+  307A 60          				.db			$60											; ..####.......... 
0164+  307B 60          				.db			$60											; ..####.......... 
0165+  307C 60          				.db			$60											; ..####.......... 
0166+  307D             
0167+  307D             L307d:
0168+  307D 00          				.db			$00											; ................			$a9
0169+  307E FE          				.db			$fe											; ##############.. 
0170+  307F FE          				.db			$fe											; ##############.. 
0171+  3080 06          				.db			$06											; ..........####.. 
0172+  3081 06          				.db			$06											; ..........####.. 
0173+  3082 06          				.db			$06											; ..........####.. 
0174+  3083 06          				.db			$06											; ..........####.. 
0175+  3084 06          				.db			$06											; ..........####.. 
0176+  3085             
0177+  3085             L3085:
0178+  3085 60          				.db			$60											; ..####..........			$aa
0179+  3086 60          				.db			$60											; ..####.......... 
0180+  3087 60          				.db			$60											; ..####.......... 
0181+  3088 60          				.db			$60											; ..####.......... 
0182+  3089 60          				.db			$60											; ..####.......... 
0183+  308A 7F          				.db			$7f											; ..############## 
0184+  308B 7F          				.db			$7f											; ..############## 
0185+  308C 00          				.db			$00											; ................ 
0186+  308D             
0187+  308D             L308d:
0188+  308D 06          				.db			$06											; ..........####..			$ab
0189+  308E 06          				.db			$06											; ..........####.. 
0190+  308F 06          				.db			$06											; ..........####.. 
0191+  3090 06          				.db			$06											; ..........####.. 
0192+  3091 06          				.db			$06											; ..........####.. 
0193+  3092 FE          				.db			$fe											; ##############.. 
0194+  3093 FE          				.db			$fe											; ##############.. 
0195+  3094 00          				.db			$00											; ................ 
0196+  3095             
0197+  3095             L3095:
0198+  3095 01          				.db			$01											; ..............##			$e2
0199+  3096 02          				.db			$02											; ............##.. 
0200+  3097 01          				.db			$01											; ..............## 
0201+  3098 02          				.db			$02											; ............##.. 
0202+  3099 01          				.db			$01											; ..............## 
0203+  309A 02          				.db			$02											; ............##.. 
0204+  309B 01          				.db			$01											; ..............## 
0205+  309C 02          				.db			$02											; ............##.. 
0206+  309D             
0207+  309D             L309d:
0208+  309D 40          				.db			$40											; ..##............			$e3
0209+  309E 80          				.db			$80											; ##.............. 
0210+  309F 40          				.db			$40											; ..##............ 
0211+  30A0 80          				.db			$80											; ##.............. 
0212+  30A1 40          				.db			$40											; ..##............ 
0213+  30A2 80          				.db			$80											; ##.............. 
0214+  30A3 40          				.db			$40											; ..##............ 
0215+  30A4 80          				.db			$80											; ##.............. 
0216+  30A5             
0217+  30A5             L30a5:
0218+  30A5 00          				.db			$00											; ................			$ba
0219+  30A6 7F          				.db			$7f											; ..############## 
0220+  30A7 6A          				.db			$6a											; ..####..##..##.. 
0221+  30A8 55          				.db			$55											; ..##..##..##..## 
0222+  30A9 6A          				.db			$6a											; ..####..##..##.. 
0223+  30AA 55          				.db			$55											; ..##..##..##..## 
0224+  30AB 6A          				.db			$6a											; ..####..##..##.. 
0225+  30AC 55          				.db			$55											; ..##..##..##..## 
0226+  30AD             
0227+  30AD             L30ad:
0228+  30AD 00          				.db			$00											; ................			$bb
0229+  30AE FE          				.db			$fe											; ##############.. 
0230+  30AF AA          				.db			$aa											; ##..##..##..##.. 
0231+  30B0 56          				.db			$56											; ..##..##..####.. 
0232+  30B1 AA          				.db			$aa											; ##..##..##..##.. 
0233+  30B2 56          				.db			$56											; ..##..##..####.. 
0234+  30B3 AA          				.db			$aa											; ##..##..##..##.. 
0235+  30B4 56          				.db			$56											; ..##..##..####.. 
0236+  30B5             
0237+  30B5             L30b5:
0238+  30B5 6A          				.db			$6a											; ..####..##..##..			$bc
0239+  30B6 55          				.db			$55											; ..##..##..##..## 
0240+  30B7 6A          				.db			$6a											; ..####..##..##.. 
0241+  30B8 55          				.db			$55											; ..##..##..##..## 
0242+  30B9 6A          				.db			$6a											; ..####..##..##.. 
0243+  30BA 55          				.db			$55											; ..##..##..##..## 
0244+  30BB 7F          				.db			$7f											; ..############## 
0245+  30BC 00          				.db			$00											; ................ 
0246+  30BD             
0247+  30BD             L30bd:
0248+  30BD AA          				.db			$aa											; ##..##..##..##..			$bd
0249+  30BE 56          				.db			$56											; ..##..##..####.. 
0250+  30BF AA          				.db			$aa											; ##..##..##..##.. 
0251+  30C0 56          				.db			$56											; ..##..##..####.. 
0252+  30C1 AA          				.db			$aa											; ##..##..##..##.. 
0253+  30C2 56          				.db			$56											; ..##..##..####.. 
0254+  30C3 FE          				.db			$fe											; ##############.. 
0255+  30C4 00          				.db			$00											; ................ 
0256+  30C5             
0257+  30C5             L30c5:
0258+  30C5 00          				.db			$00											; ................			$b0
0259+  30C6 FF          				.db			$ff											; ################ 
0260+  30C7 AA          				.db			$aa											; ##..##..##..##.. 
0261+  30C8 55          				.db			$55											; ..##..##..##..## 
0262+  30C9 AA          				.db			$aa											; ##..##..##..##.. 
0263+  30CA 55          				.db			$55											; ..##..##..##..## 
0264+  30CB AA          				.db			$aa											; ##..##..##..##.. 
0265+  30CC 55          				.db			$55											; ..##..##..##..## 
0266+  30CD             
0267+  30CD             L30cd:
0268+  30CD AA          				.db			$aa											; ##..##..##..##..			$b1
0269+  30CE 55          				.db			$55											; ..##..##..##..## 
0270+  30CF AA          				.db			$aa											; ##..##..##..##.. 
0271+  30D0 55          				.db			$55											; ..##..##..##..## 
0272+  30D1 AA          				.db			$aa											; ##..##..##..##.. 
0273+  30D2 55          				.db			$55											; ..##..##..##..## 
0274+  30D3 FF          				.db			$ff											; ################ 
0275+  30D4 00          				.db			$00											; ................ 
0276+  30D5             
0277+  30D5             L30d5:
0278+  30D5 6A          				.db			$6a											; ..####..##..##..			$b2
0279+  30D6 55          				.db			$55											; ..##..##..##..## 
0280+  30D7 6A          				.db			$6a											; ..####..##..##.. 
0281+  30D8 55          				.db			$55											; ..##..##..##..## 
0282+  30D9 6A          				.db			$6a											; ..####..##..##.. 
0283+  30DA 55          				.db			$55											; ..##..##..##..## 
0284+  30DB 6A          				.db			$6a											; ..####..##..##.. 
0285+  30DC 55          				.db			$55											; ..##..##..##..## 
0286+  30DD             
0287+  30DD             L30dd:
0288+  30DD AA          				.db			$aa											; ##..##..##..##..			$b3
0289+  30DE 56          				.db			$56											; ..##..##..####.. 
0290+  30DF AA          				.db			$aa											; ##..##..##..##.. 
0291+  30E0 56          				.db			$56											; ..##..##..####.. 
0292+  30E1 AA          				.db			$aa											; ##..##..##..##.. 
0293+  30E2 56          				.db			$56											; ..##..##..####.. 
0294+  30E3 AA          				.db			$aa											; ##..##..##..##.. 
0295+  30E4 56          				.db			$56											; ..##..##..####.. 
0296+  30E5             
0297+  30E5             L30e5:
0298+  30E5 AA          				.db			$aa											; ##..##..##..##..			$b4
0299+  30E6 55          				.db			$55											; ..##..##..##..## 
0300+  30E7 AA          				.db			$aa											; ##..##..##..##.. 
0301+  30E8 55          				.db			$55											; ..##..##..##..## 
0302+  30E9 AA          				.db			$aa											; ##..##..##..##.. 
0303+  30EA 55          				.db			$55											; ..##..##..##..## 
0304+  30EB AA          				.db			$aa											; ##..##..##..##.. 
0305+  30EC 55          				.db			$55											; ..##..##..##..## 
0306+  30ED             
0307+  30ED             L30ed:
0308+  30ED 18          				.db			$18											; ......####......			$b5 #1
0309+  30EE 3C          				.db			$3c											; ....########.... 
0310+  30EF 7E          				.db			$7e											; ..############.. 
0311+  30F0 DB          				.db			$db											; ####..####..#### 
0312+  30F1 99          				.db			$99											; ##....####....## 
0313+  30F2 5A          				.db			$5a											; ..##..####..##.. 
0314+  30F3 FF          				.db			$ff											; ################ 
0315+  30F4 81          				.db			$81											; ##............## 
0316+  30F5             
0317+  30F5             L30f5:
0318+  30F5 81          				.db			$81											; ##............##			$b5 #2
0319+  30F6 5A          				.db			$5a											; ..##..####..##.. 
0320+  30F7 7E          				.db			$7e											; ..############.. 
0321+  30F8 DB          				.db			$db											; ####..####..#### 
0322+  30F9 99          				.db			$99											; ##....####....## 
0323+  30FA 66          				.db			$66											; ..####....####.. 
0324+  30FB 24          				.db			$24											; ....##....##.... 
0325+  30FC 5A          				.db			$5a											; ..##..####..##.. 
0326+  30FD             
0327+  30FD             L30fd:
0328+  30FD 18          				.db			$18											; ......####......			$b5 #3
0329+  30FE 54          				.db			$54											; ..##..##..##.... 
0330+  30FF 24          				.db			$24											; ....##....##.... 
0331+  3100 18          				.db			$18											; ......####...... 
0332+  3101 18          				.db			$18											; ......####...... 
0333+  3102 7E          				.db			$7e											; ..############.. 
0334+  3103 24          				.db			$24											; ....##....##.... 
0335+  3104 66          				.db			$66											; ..####....####.. 
0336+  3105             
0337+  3105             L3105:
0338+  3105 C3          				.db			$c3											; ####........####			$b5 #4
0339+  3106 99          				.db			$99											; ##....####....## 
0340+  3107 E7          				.db			$e7											; ######....###### 
0341+  3108 24          				.db			$24											; ....##....##.... 
0342+  3109 E7          				.db			$e7											; ######....###### 
0343+  310A A5          				.db			$a5											; ##..##....##..## 
0344+  310B 99          				.db			$99											; ##....####....## 
0345+  310C 00          				.db			$00											; ................ 
0346+  310D             
0347+  310D             L310d:
0348+  310D 18          				.db			$18											; ......####......			$b5 #5
0349+  310E 18          				.db			$18											; ......####...... 
0350+  310F 24          				.db			$24											; ....##....##.... 
0351+  3110 A5          				.db			$a5											; ##..##....##..## 
0352+  3111 99          				.db			$99											; ##....####....## 
0353+  3112 FF          				.db			$ff											; ################ 
0354+  3113 7E          				.db			$7e											; ..############.. 
0355+  3114 24          				.db			$24											; ....##....##.... 
0356+  3115             
0357+  3115             L3115:
0358+  3115 3C          				.db			$3c											; ....########....			$b5 #6
0359+  3116 5A          				.db			$5a											; ..##..####..##.. 
0360+  3117 99          				.db			$99											; ##....####....## 
0361+  3118 66          				.db			$66											; ..####....####.. 
0362+  3119 66          				.db			$66											; ..####....####.. 
0363+  311A 66          				.db			$66											; ..####....####.. 
0364+  311B A5          				.db			$a5											; ##..##....##..## 
0365+  311C 99          				.db			$99											; ##....####....## 
0366+  311D             
0367+  311D             L311d:
0368+  311D 24          				.db			$24											; ....##....##....			$b5 #7
0369+  311E 66          				.db			$66											; ..####....####.. 
0370+  311F 66          				.db			$66											; ..####....####.. 
0371+  3120 FF          				.db			$ff											; ################ 
0372+  3121 FF          				.db			$ff											; ################ 
0373+  3122 18          				.db			$18											; ......####...... 
0374+  3123 3C          				.db			$3c											; ....########.... 
0375+  3124 42          				.db			$42											; ..##........##.. 
0376+  3125             
0377+  3125             L3125:
0378+  3125 24          				.db			$24											; ....##....##....			$b5 #8
0379+  3126 42          				.db			$42											; ..##........##.. 
0380+  3127 E7          				.db			$e7											; ######....###### 
0381+  3128 C3          				.db			$c3											; ####........#### 
0382+  3129 7E          				.db			$7e											; ..############.. 
0383+  312A 18          				.db			$18											; ......####...... 
0384+  312B 3C          				.db			$3c											; ....########.... 
0385+  312C 42          				.db			$42											; ..##........##.. 
0386+  312D             
0387+  312D             L312d:
0388+  312D 5A          				.db			$5a											; ..##..####..##..			$b5 #9
0389+  312E 7E          				.db			$7e											; ..############.. 
0390+  312F 18          				.db			$18											; ......####...... 
0391+  3130 FF          				.db			$ff											; ################ 
0392+  3131 18          				.db			$18											; ......####...... 
0393+  3132 5A          				.db			$5a											; ..##..####..##.. 
0394+  3133 FF          				.db			$ff											; ################ 
0395+  3134 81          				.db			$81											; ##............## 
0396+  3135             
0397+  3135             L3135:
0398+  3135 99          				.db			$99											; ##....####....## 
0399+  3136 E7          				.db			$e7											; ######....###### 
0400+  3137 99          				.db			$99											; ##....####....## 
0401+  3138 E7          				.db			$e7											; ######....###### 
0402+  3139 E7          				.db			$e7											; ######....###### 
0403+  313A FF          				.db			$ff											; ################ 
0404+  313B 99          				.db			$99											; ##....####....## 
0405+  313C 99          				.db			$99											; ##....####....## 
0406+  313D             
0407+  313D             L313d:
0408+  313D A5          				.db			$a5											; ##..##....##..## 
0409+  313E FF          				.db			$ff											; ################ 
0410+  313F A5          				.db			$a5											; ##..##....##..## 
0411+  3140 A5          				.db			$a5											; ##..##....##..## 
0412+  3141 18          				.db			$18											; ......####...... 
0413+  3142 99          				.db			$99											; ##....####....## 
0414+  3143 E7          				.db			$e7											; ######....###### 
0415+  3144 81          				.db			$81											; ##............## 
0416+  3145             
0417+  3145             L3145:
0418+  3145 18          				.db			$18											; ......####...... 
0419+  3146 3C          				.db			$3c											; ....########.... 
0420+  3147 18          				.db			$18											; ......####...... 
0421+  3148 18          				.db			$18											; ......####...... 
0422+  3149 18          				.db			$18											; ......####...... 
0423+  314A 18          				.db			$18											; ......####...... 
0424+  314B 24          				.db			$24											; ....##....##.... 
0425+  314C 24          				.db			$24											; ....##....##.... 
0426+  314D             
0427+  314D             				;; Char locs
0428+  314D             L314d:
0429+  314D ED 30       				.dw			$30ed
0430+  314F F5 30       				.dw			$30f5
0431+  3151 FD 30       				.dw			$30fd
0432+  3153 05 31       				.dw			$3105
0433+  3155 0D 31       				.dw			$310d
0434+  3157 15 31       				.dw			$3115
0435+  3159 1D 31       				.dw			$311d
0436+  315B 25 31       				.dw			$3125
0437+  315D 2D 31       				.dw			$312d
0438+  315F 35 31       				.dw			$3135
0439+  3161 3D 31       				.dw			$313d
0440+  3163             
0441+  3163             				;; Missile loc
0442+  3163 45 31       				.dw			$3145
0443+  3165             
0444+  3165             L3165:
0445+  3165 0E          				.db			$0e											; ........######..			$30
0446+  3166 11          				.db			$11											; ......##......## 
0447+  3167 11          				.db			$11											; ......##......## 
0448+  3168 11          				.db			$11											; ......##......## 
0449+  3169 11          				.db			$11											; ......##......## 
0450+  316A 11          				.db			$11											; ......##......## 
0451+  316B 0E          				.db			$0e											; ........######.. 
0452+  316C 00          				.db			$00											; ................ 
0453+  316D             
0454+  316D             L316d:
0455+  316D 04          				.db			$04											; ..........##....			$31
0456+  316E 0C          				.db			$0c											; ........####.... 
0457+  316F 04          				.db			$04											; ..........##.... 
0458+  3170 04          				.db			$04											; ..........##.... 
0459+  3171 04          				.db			$04											; ..........##.... 
0460+  3172 04          				.db			$04											; ..........##.... 
0461+  3173 0E          				.db			$0e											; ........######.. 
0462+  3174 00          				.db			$00											; ................ 
0463+  3175             
0464+  3175             L3175:
0465+  3175 0E          				.db			$0e											; ........######..			$32
0466+  3176 11          				.db			$11											; ......##......## 
0467+  3177 01          				.db			$01											; ..............## 
0468+  3178 06          				.db			$06											; ..........####.. 
0469+  3179 08          				.db			$08											; ........##...... 
0470+  317A 10          				.db			$10											; ......##........ 
0471+  317B 1F          				.db			$1f											; ......########## 
0472+  317C 00          				.db			$00											; ................ 
0473+  317D             
0474+  317D             L317d:
0475+  317D 1F          				.db			$1f											; ......##########			$33
0476+  317E 01          				.db			$01											; ..............## 
0477+  317F 02          				.db			$02											; ............##.. 
0478+  3180 06          				.db			$06											; ..........####.. 
0479+  3181 01          				.db			$01											; ..............## 
0480+  3182 11          				.db			$11											; ......##......## 
0481+  3183 0E          				.db			$0e											; ........######.. 
0482+  3184 00          				.db			$00											; ................ 
0483+  3185             
0484+  3185             L3185:
0485+  3185 02          				.db			$02											; ............##..			$34
0486+  3186 06          				.db			$06											; ..........####.. 
0487+  3187 0A          				.db			$0a											; ........##..##.. 
0488+  3188 12          				.db			$12											; ......##....##.. 
0489+  3189 1F          				.db			$1f											; ......########## 
0490+  318A 02          				.db			$02											; ............##.. 
0491+  318B 02          				.db			$02											; ............##.. 
0492+  318C 00          				.db			$00											; ................ 
0493+  318D             
0494+  318D             L318d:
0495+  318D 1F          				.db			$1f											; ......##########			$35
0496+  318E 10          				.db			$10											; ......##........ 
0497+  318F 10          				.db			$10											; ......##........ 
0498+  3190 1E          				.db			$1e											; ......########.. 
0499+  3191 01          				.db			$01											; ..............## 
0500+  3192 11          				.db			$11											; ......##......## 
0501+  3193 0E          				.db			$0e											; ........######.. 
0502+  3194 00          				.db			$00											; ................ 
0503+  3195             
0504+  3195             L3195:
0505+  3195 07          				.db			$07											; ..........######			$36
0506+  3196 08          				.db			$08											; ........##...... 
0507+  3197 10          				.db			$10											; ......##........ 
0508+  3198 1E          				.db			$1e											; ......########.. 
0509+  3199 11          				.db			$11											; ......##......## 
0510+  319A 11          				.db			$11											; ......##......## 
0511+  319B 0E          				.db			$0e											; ........######.. 
0512+  319C 00          				.db			$00											; ................ 
0513+  319D             
0514+  319D             L319d:
0515+  319D 1F          				.db			$1f											; ......##########			$37
0516+  319E 01          				.db			$01											; ..............## 
0517+  319F 01          				.db			$01											; ..............## 
0518+  31A0 02          				.db			$02											; ............##.. 
0519+  31A1 04          				.db			$04											; ..........##.... 
0520+  31A2 08          				.db			$08											; ........##...... 
0521+  31A3 08          				.db			$08											; ........##...... 
0522+  31A4 00          				.db			$00											; ................ 
0523+  31A5             
0524+  31A5             L31a5:
0525+  31A5 0E          				.db			$0e											; ........######..			$38
0526+  31A6 11          				.db			$11											; ......##......## 
0527+  31A7 11          				.db			$11											; ......##......## 
0528+  31A8 0E          				.db			$0e											; ........######.. 
0529+  31A9 11          				.db			$11											; ......##......## 
0530+  31AA 11          				.db			$11											; ......##......## 
0531+  31AB 0E          				.db			$0e											; ........######.. 
0532+  31AC 00          				.db			$00											; ................ 
0533+  31AD             
0534+  31AD             L31ad:
0535+  31AD 0E          				.db			$0e											; ........######..			$39
0536+  31AE 11          				.db			$11											; ......##......## 
0537+  31AF 11          				.db			$11											; ......##......## 
0538+  31B0 0F          				.db			$0f											; ........######## 
0539+  31B1 01          				.db			$01											; ..............## 
0540+  31B2 02          				.db			$02											; ............##.. 
0541+  31B3 1C          				.db			$1c											; ......######.... 
0542+  31B4 00          				.db			$00											; ................ 
0543+  31B5             
0544+  31B5             L31b5:
0545+  31B5 0E          				.db			$0e											; ........######..			$41
0546+  31B6 11          				.db			$11											; ......##......## 
0547+  31B7 11          				.db			$11											; ......##......## 
0548+  31B8 1F          				.db			$1f											; ......########## 
0549+  31B9 11          				.db			$11											; ......##......## 
0550+  31BA 11          				.db			$11											; ......##......## 
0551+  31BB 11          				.db			$11											; ......##......## 
0552+  31BC 00          				.db			$00											; ................ 
0553+  31BD             
0554+  31BD             L31bd:
0555+  31BD 1E          				.db			$1e											; ......########..			$42
0556+  31BE 11          				.db			$11											; ......##......## 
0557+  31BF 11          				.db			$11											; ......##......## 
0558+  31C0 1E          				.db			$1e											; ......########.. 
0559+  31C1 11          				.db			$11											; ......##......## 
0560+  31C2 11          				.db			$11											; ......##......## 
0561+  31C3 1E          				.db			$1e											; ......########.. 
0562+  31C4 00          				.db			$00											; ................ 
0563+  31C5             
0564+  31C5             L31c5:
0565+  31C5 0E          				.db			$0e											; ........######..			$43
0566+  31C6 11          				.db			$11											; ......##......## 
0567+  31C7 10          				.db			$10											; ......##........ 
0568+  31C8 10          				.db			$10											; ......##........ 
0569+  31C9 10          				.db			$10											; ......##........ 
0570+  31CA 11          				.db			$11											; ......##......## 
0571+  31CB 0E          				.db			$0e											; ........######.. 
0572+  31CC 00          				.db			$00											; ................ 
0573+  31CD             
0574+  31CD             L31cd:
0575+  31CD 1E          				.db			$1e											; ......########..			$44
0576+  31CE 11          				.db			$11											; ......##......## 
0577+  31CF 11          				.db			$11											; ......##......## 
0578+  31D0 11          				.db			$11											; ......##......## 
0579+  31D1 11          				.db			$11											; ......##......## 
0580+  31D2 11          				.db			$11											; ......##......## 
0581+  31D3 1E          				.db			$1e											; ......########.. 
0582+  31D4 00          				.db			$00											; ................ 
0583+  31D5             
0584+  31D5             L31d5:
0585+  31D5 1F          				.db			$1f											; ......##########			$45
0586+  31D6 10          				.db			$10											; ......##........ 
0587+  31D7 10          				.db			$10											; ......##........ 
0588+  31D8 1E          				.db			$1e											; ......########.. 
0589+  31D9 10          				.db			$10											; ......##........ 
0590+  31DA 10          				.db			$10											; ......##........ 
0591+  31DB 1F          				.db			$1f											; ......########## 
0592+  31DC 00          				.db			$00											; ................ 
0593+  31DD             
0594+  31DD             L31dd:
0595+  31DD 1F          				.db			$1f											; ......##########			$46
0596+  31DE 10          				.db			$10											; ......##........ 
0597+  31DF 10          				.db			$10											; ......##........ 
0598+  31E0 1E          				.db			$1e											; ......########.. 
0599+  31E1 10          				.db			$10											; ......##........ 
0600+  31E2 10          				.db			$10											; ......##........ 
0601+  31E3 10          				.db			$10											; ......##........ 
0602+  31E4 00          				.db			$00											; ................ 
0603+  31E5             
0604+  31E5             L31e5:
0605+  31E5 0E          				.db			$0e											; ........######..			$47
0606+  31E6 11          				.db			$11											; ......##......## 
0607+  31E7 10          				.db			$10											; ......##........ 
0608+  31E8 10          				.db			$10											; ......##........ 
0609+  31E9 13          				.db			$13											; ......##....#### 
0610+  31EA 11          				.db			$11											; ......##......## 
0611+  31EB 0E          				.db			$0e											; ........######.. 
0612+  31EC 00          				.db			$00											; ................ 
0613+  31ED             
0614+  31ED             L31ed:
0615+  31ED 11          				.db			$11											; ......##......##			$48
0616+  31EE 11          				.db			$11											; ......##......## 
0617+  31EF 11          				.db			$11											; ......##......## 
0618+  31F0 1F          				.db			$1f											; ......########## 
0619+  31F1 11          				.db			$11											; ......##......## 
0620+  31F2 11          				.db			$11											; ......##......## 
0621+  31F3 11          				.db			$11											; ......##......## 
0622+  31F4 00          				.db			$00											; ................ 
0623+  31F5             
0624+  31F5             L31f5:
0625+  31F5 0E          				.db			$0e											; ........######..			$49
0626+  31F6 04          				.db			$04											; ..........##.... 
0627+  31F7 04          				.db			$04											; ..........##.... 
0628+  31F8 04          				.db			$04											; ..........##.... 
0629+  31F9 04          				.db			$04											; ..........##.... 
0630+  31FA 04          				.db			$04											; ..........##.... 
0631+  31FB 0E          				.db			$0e											; ........######.. 
0632+  31FC 00          				.db			$00											; ................ 
0633+  31FD             
0634+  31FD             L31fd:
0635+  31FD 01          				.db			$01											; ..............##			$4a
0636+  31FE 01          				.db			$01											; ..............## 
0637+  31FF 01          				.db			$01											; ..............## 
0638+  3200 01          				.db			$01											; ..............## 
0639+  3201 01          				.db			$01											; ..............## 
0640+  3202 11          				.db			$11											; ......##......## 
0641+  3203 0E          				.db			$0e											; ........######.. 
0642+  3204 00          				.db			$00											; ................ 
0643+  3205             
0644+  3205             L3205:
0645+  3205 11          				.db			$11											; ......##......##			$4b
0646+  3206 12          				.db			$12											; ......##....##.. 
0647+  3207 14          				.db			$14											; ......##..##.... 
0648+  3208 18          				.db			$18											; ......####...... 
0649+  3209 14          				.db			$14											; ......##..##.... 
0650+  320A 12          				.db			$12											; ......##....##.. 
0651+  320B 11          				.db			$11											; ......##......## 
0652+  320C 00          				.db			$00											; ................ 
0653+  320D             
0654+  320D             L320d:
0655+  320D 10          				.db			$10											; ......##........			$4c
0656+  320E 10          				.db			$10											; ......##........ 
0657+  320F 10          				.db			$10											; ......##........ 
0658+  3210 10          				.db			$10											; ......##........ 
0659+  3211 10          				.db			$10											; ......##........ 
0660+  3212 10          				.db			$10											; ......##........ 
0661+  3213 1F          				.db			$1f											; ......########## 
0662+  3214 00          				.db			$00											; ................ 
0663+  3215             
0664+  3215             L3215:
0665+  3215 11          				.db			$11											; ......##......##			$4d
0666+  3216 1B          				.db			$1b											; ......####..#### 
0667+  3217 15          				.db			$15											; ......##..##..## 
0668+  3218 15          				.db			$15											; ......##..##..## 
0669+  3219 11          				.db			$11											; ......##......## 
0670+  321A 11          				.db			$11											; ......##......## 
0671+  321B 11          				.db			$11											; ......##......## 
0672+  321C 00          				.db			$00											; ................ 
0673+  321D             
0674+  321D             L321d:
0675+  321D 11          				.db			$11											; ......##......##			$4e
0676+  321E 11          				.db			$11											; ......##......## 
0677+  321F 19          				.db			$19											; ......####....## 
0678+  3220 15          				.db			$15											; ......##..##..## 
0679+  3221 13          				.db			$13											; ......##....#### 
0680+  3222 11          				.db			$11											; ......##......## 
0681+  3223 11          				.db			$11											; ......##......## 
0682+  3224 00          				.db			$00											; ................ 
0683+  3225             
0684+  3225             L3225:
0685+  3225 0E          				.db			$0e											; ........######..			$4f
0686+  3226 11          				.db			$11											; ......##......## 
0687+  3227 11          				.db			$11											; ......##......## 
0688+  3228 11          				.db			$11											; ......##......## 
0689+  3229 11          				.db			$11											; ......##......## 
0690+  322A 11          				.db			$11											; ......##......## 
0691+  322B 0E          				.db			$0e											; ........######.. 
0692+  322C 00          				.db			$00											; ................ 
0693+  322D             
0694+  322D             L322d:
0695+  322D 1E          				.db			$1e											; ......########..			$50
0696+  322E 11          				.db			$11											; ......##......## 
0697+  322F 11          				.db			$11											; ......##......## 
0698+  3230 1E          				.db			$1e											; ......########.. 
0699+  3231 10          				.db			$10											; ......##........ 
0700+  3232 10          				.db			$10											; ......##........ 
0701+  3233 10          				.db			$10											; ......##........ 
0702+  3234 00          				.db			$00											; ................ 
0703+  3235             
0704+  3235             L3235:
0705+  3235 0E          				.db			$0e											; ........######..			$51
0706+  3236 11          				.db			$11											; ......##......## 
0707+  3237 11          				.db			$11											; ......##......## 
0708+  3238 11          				.db			$11											; ......##......## 
0709+  3239 15          				.db			$15											; ......##..##..## 
0710+  323A 12          				.db			$12											; ......##....##.. 
0711+  323B 0D          				.db			$0d											; ........####..## 
0712+  323C 00          				.db			$00											; ................ 
0713+  323D             
0714+  323D             L323d:
0715+  323D 1E          				.db			$1e											; ......########..			$52
0716+  323E 11          				.db			$11											; ......##......## 
0717+  323F 11          				.db			$11											; ......##......## 
0718+  3240 1E          				.db			$1e											; ......########.. 
0719+  3241 14          				.db			$14											; ......##..##.... 
0720+  3242 12          				.db			$12											; ......##....##.. 
0721+  3243 11          				.db			$11											; ......##......## 
0722+  3244 00          				.db			$00											; ................ 
0723+  3245             
0724+  3245             L3245:
0725+  3245 0E          				.db			$0e											; ........######..			$53
0726+  3246 11          				.db			$11											; ......##......## 
0727+  3247 10          				.db			$10											; ......##........ 
0728+  3248 0E          				.db			$0e											; ........######.. 
0729+  3249 01          				.db			$01											; ..............## 
0730+  324A 11          				.db			$11											; ......##......## 
0731+  324B 0E          				.db			$0e											; ........######.. 
0732+  324C 00          				.db			$00											; ................ 
0733+  324D             
0734+  324D             L324d:
0735+  324D 1F          				.db			$1f											; ......##########			$54
0736+  324E 04          				.db			$04											; ..........##.... 
0737+  324F 04          				.db			$04											; ..........##.... 
0738+  3250 04          				.db			$04											; ..........##.... 
0739+  3251 04          				.db			$04											; ..........##.... 
0740+  3252 04          				.db			$04											; ..........##.... 
0741+  3253 04          				.db			$04											; ..........##.... 
0742+  3254 00          				.db			$00											; ................ 
0743+  3255             
0744+  3255             L3255:
0745+  3255 11          				.db			$11											; ......##......##			$55
0746+  3256 11          				.db			$11											; ......##......## 
0747+  3257 11          				.db			$11											; ......##......## 
0748+  3258 11          				.db			$11											; ......##......## 
0749+  3259 11          				.db			$11											; ......##......## 
0750+  325A 11          				.db			$11											; ......##......## 
0751+  325B 0E          				.db			$0e											; ........######.. 
0752+  325C 00          				.db			$00											; ................ 
0753+  325D             
0754+  325D             L325d:
0755+  325D 11          				.db			$11											; ......##......##			$56
0756+  325E 11          				.db			$11											; ......##......## 
0757+  325F 11          				.db			$11											; ......##......## 
0758+  3260 11          				.db			$11											; ......##......## 
0759+  3261 0A          				.db			$0a											; ........##..##.. 
0760+  3262 0A          				.db			$0a											; ........##..##.. 
0761+  3263 04          				.db			$04											; ..........##.... 
0762+  3264 00          				.db			$00											; ................ 
0763+  3265             
0764+  3265             L3265:
0765+  3265 11          				.db			$11											; ......##......##			$57
0766+  3266 11          				.db			$11											; ......##......## 
0767+  3267 11          				.db			$11											; ......##......## 
0768+  3268 15          				.db			$15											; ......##..##..## 
0769+  3269 15          				.db			$15											; ......##..##..## 
0770+  326A 1B          				.db			$1b											; ......####..#### 
0771+  326B 11          				.db			$11											; ......##......## 
0772+  326C 00          				.db			$00											; ................ 
0773+  326D             
0774+  326D             L326d:
0775+  326D 11          				.db			$11											; ......##......##			$58
0776+  326E 11          				.db			$11											; ......##......## 
0777+  326F 0A          				.db			$0a											; ........##..##.. 
0778+  3270 04          				.db			$04											; ..........##.... 
0779+  3271 0A          				.db			$0a											; ........##..##.. 
0780+  3272 11          				.db			$11											; ......##......## 
0781+  3273 11          				.db			$11											; ......##......## 
0782+  3274 00          				.db			$00											; ................ 
0783+  3275             
0784+  3275             L3275:
0785+  3275 11          				.db			$11											; ......##......##			$59
0786+  3276 11          				.db			$11											; ......##......## 
0787+  3277 0A          				.db			$0a											; ........##..##.. 
0788+  3278 04          				.db			$04											; ..........##.... 
0789+  3279 04          				.db			$04											; ..........##.... 
0790+  327A 04          				.db			$04											; ..........##.... 
0791+  327B 04          				.db			$04											; ..........##.... 
0792+  327C 00          				.db			$00											; ................ 
0793+  327D             
0794+  327D             L327d:
0795+  327D 1F          				.db			$1f											; ......##########			$5a
0796+  327E 01          				.db			$01											; ..............## 
0797+  327F 02          				.db			$02											; ............##.. 
0798+  3280 04          				.db			$04											; ..........##.... 
0799+  3281 08          				.db			$08											; ........##...... 
0800+  3282 10          				.db			$10											; ......##........ 
0801+  3283 1F          				.db			$1f											; ......########## 
0802+  3284 00          				.db			$00											; ................ 
0803+  3285             
0804+  3285             L3285:
0805+  3285 7C          				.db			$7c											; ..##########....			$5b/5f
0806+  3286 82          				.db			$82											; ##..........##.. 
0807+  3287 BA          				.db			$ba											; ##..######..##.. 
0808+  3288 A2          				.db			$a2											; ##..##......##.. 
0809+  3289 A2          				.db			$a2											; ##..##......##.. 
0810+  328A BA          				.db			$ba											; ##..######..##.. 
0811+  328B 82          				.db			$82											; ##..........##.. 
0812+  328C 7C          				.db			$7c											; ..##########.... 
0813+  328D             
0814+  328D             L328d:
0815+  328D 24          				.db			$24											; ....##....##....			$5e
0816+  328E 24          				.db			$24											; ....##....##.... 
0817+  328F FF          				.db			$ff											; ################ 
0818+  3290 24          				.db			$24											; ....##....##.... 
0819+  3291 24          				.db			$24											; ....##....##.... 
0820+  3292 FF          				.db			$ff											; ################ 
0821+  3293 24          				.db			$24											; ....##....##.... 
0822+  3294 24          				.db			$24											; ....##....##.... 
0823+  3295             
0824+  3295             
0825+  3295             				;; Drawn in code at $2dc5, not actually in table
0826+  3295             ;;			.db			$00											; ................			$e0
0827+  3295             ;;			.db			$00											; ................
0828+  3295             ;;			.db			$00											; ................
0829+  3295             ;;			.db			$00											; ................
0830+  3295             ;;			.db			$00											; ................
0831+  3295             ;;			.db			$00											; ................
0832+  3295             ;;			.db			$aa											; ##..##..##..##..
0833+  3295             ;;			.db			$55											; ..##..##..##..##
0834+  3295             
0835+  3295             ;;			.db			$55											; ..##..##..##..##			$e1
0836+  3295             ;;			.db			$aa											; ##..##..##..##..
0837+  3295             ;;			.db			$00											; ................
0838+  3295             ;;			.db			$00											; ................
0839+  3295             ;;			.db			$00											; ................
0840+  3295             ;;			.db			$00											; ................
0841+  3295             ;;			.db			$00											; ................
0842+  3295             ;;			.db			$00											; ................
0843+  3295             
0844+  3295             				.end4864   3295             
4865   3295             				;; Table (4 entries)
4866   3295             L3295:
4867   3295 02 03 04 05 				.db			$02, $03, $04, $05			; Lives?
4868   3299             
4869   3299             L3299:
4870   3299 20 00 00 01 				.db			$20, $00, $00, $01			; DATA
4871   329D             
4872   329D             L329d:
4873   329D 10 18 08 00 				.db			$10, $18, $08, $00			; DATA
4874   32A1 18 10 00 08 				.db			$18, $10, $00, $08			; DATA
4875   32A5             
4876   32A5             L32a5:
4877   32A5 00 1F 01 E0 				.db			$00, $1f, $01, $e0			; DATA
4878   32A9 FF 20 E1 00 				.db			$ff, $20, $e1, $00			; DATA
4879   32AD             
4880   32AD             L32ad:
4881   32AD 00 00 00 FF 				.db			$00, $00, $00, $ff			; DATA
4882   32B1 FF 00 FF 00 				.db			$ff, $00, $ff, $00			; DATA
4883   32B5             
4884   32B5             L32b5:
4885   32B5 01 01 20 20 				.db			$01, $01, $20, $20			; DATA
4886   32B9             
4887   32B9             L32b9:
4888   32B9 E0 20 01 FF 				.db			$e0, $20, $01, $ff			; DATA
4889   32BD             
4890   32BD             L32bd:
4891   32BD FF 00 00 FF 				.db			$ff, $00, $00, $ff			; DATA
4892   32C1             
4893   32C1             L32c1:
4894   32C1 C0 80       				.db			$c0, $80								; DATA 
4895   32C3             			
4896   32C3             L32c3:
4897   32C3 50 60       				.db			$50, $60								; DATA
4898   32C5             
4899   32C5             L32c5:
4900   32C5 20 E0 FF 01 				.db			$20, $e0, $ff, $01			; DATA
4901   32C9             
4902   32C9             L32c9:
4903   32C9 00 FF FF 00 				.db			$00, $ff, $ff, $00			; DATA
4904   32CD             
4905   32CD             L32cd:	
4906   32CD 01 20 22 00 				.db			$01, $20, $22, $00			; DATA
4907   32D1 61 42 40 00 				.db			$61, $42, $40, $00			; DATA
4908   32D5 23 02 42 00 				.db			$23, $02, $42, $00			; DATA
4909   32D9 20 41 01 00 				.db			$20, $41, $01, $00			; DATA
4910   32DD             
4911   32DD             L32dd:
4912   32DD 00 20 A0 80 				.db			$00, $20, $a0, $80			; DATA
4913   32E1 43 42 3E 3F 				.db			$43, $42, $3e, $3f			; DATA
4914   32E5             
4915   32E5             L32e5:
4916   32E5 03 03 02 02 				.db			$03, $03, $02, $02			; DATA
4917   32E9             
4918   32E9             L32e9:
4919   32E9 00 02 01 80 				.db			$00, $02, $01, $80			; DATA
4920   32ED             
4921   32ED             L32ed:
4922   32ED 02 00 80 01 				.db			$02, $00, $80, $01			; DATA
4923   32F1             
4924   32F1             L32f1:
4925   32F1 01 80 02 00 				.db			$01, $80, $02, $00			; DATA
4926   32F5             
4927   32F5             L32f5:
4928   32F5 80 01 00 02 				.db			$80, $01, $00, $02			; DATA
4929   32F9             
4930   32F9             L32f9:
4931   32F9 2C 2D 2E 2F 				.db			$2c, $2d, $2e, $2f			; DATA
4932   32FD B0 B1 B2 B3 				.db			$b0, $b1, $b2, $b3			; DATA
4933   3301 E0 E1 E2 E3 				.db			$e0, $e1, $e2, $e3			; DATA
4934   3305             
4935   3305             L3305:
4936   3305 00 00 FD 02 				.db			$00, $00, $fd, $02			; DATA
4937   3309             
4938   3309             L3309:
4939   3309 02 FD 00 00 				.db			$02, $fd, $00, $00			; DATA
4940   330D             
4941   330D             L330d:
4942   330D 05 05 05 05 				.db			$05, $05, $05, $05			; DATA
4943   3311 05 05 0F 02 				.db			$05, $05, $0f, $02			; DATA
4944   3315             
4945   3315             L3315:
4946   3315 02 02 01 01 				.db			$02, $02, $01, $01			; DATA
4947   3319 01 01 01 01 				.db			$01, $01, $01, $01			; DATA
4948   331D             				
4949   331D             L331d:
4950   331D 01 01 01 01 				.db			$01, $01, $01, $01			; DATA
4951   3321 01 01 01 02 				.db			$01, $01, $01, $02			; DATA
4952   3325             
4953   3325             L3325:
4954   3325 00 FF FF 00 				.db			$00, $ff, $ff, $00			; DATA
4955   3329             
4956   3329             L3329:
4957   3329 55 AA 55 AA 				.db			$55, $aa, $55, $aa			; DATA
4958   332D A0 B4 A0 80 				.db			$a0, $b4, $a0, $80			; DATA
4959   3331 55 B0 B8 C0 				.db			$55, $b0, $b8, $c0			; DATA
4960   3335 C8 D0 D8 E0 				.db			$c8, $d0, $d8, $e0			; DATA
4961   3339 E8 F0 FF    				.db			$e8, $f0, $ff						; DATA
4962   333C             				
4963   333C             L333c:
4964   333C 01 02 20 23 				.db			$01, $02, $20, $23			; DATA
4965   3340 40 43 60 63 				.db			$40, $43, $60, $63			; DATA
4966   3344 80 83 A1 A2 				.db			$80, $83, $a1, $a2			; DATA
4967   3348 FF 00 01 21 				.db			$ff, $00, $01, $21			; DATA
4968   334C 41 61 81 A0 				.db			$41, $61, $81, $a0			; DATA
4969   3350 A1 A2 FF 00 				.db			$a1, $a2, $ff, $00			; DATA
4970   3354 01 02 20 22 				.db			$01, $02, $20, $22			; DATA
4971   3358 42 60 61 62 				.db			$42, $60, $61, $62			; DATA
4972   335C 80 A0 A1 A2 				.db			$80, $a0, $a1, $a2			; DATA
4973   3360 FF 00 01 02 				.db			$ff, $00, $01, $02			; DATA
4974   3364 22 41 42 62 				.db			$22, $41, $42, $62			; DATA
4975   3368 82 A0 A1 A2 				.db			$82, $a0, $a1, $a2			; DATA
4976   336C FF 02 20 22 				.db			$ff, $02, $20, $22			; DATA
4977   3370 40 42 60 61 				.db			$40, $42, $60, $61			; DATA
4978   3374 62 63 82 A1 				.db			$62, $63, $82, $a1			; DATA
4979   3378 A2 A3 FF 00 				.db			$a2, $a3, $ff, $00			; DATA
4980   337C 01 02 20 40 				.db			$01, $02, $20, $40			; DATA
4981   3380 41 42 43 63 				.db			$41, $42, $43, $63			; DATA
4982   3384 83 A0 A1 A2 				.db			$83, $a0, $a1, $a2			; DATA
4983   3388 A3 FF 00 01 				.db			$a3, $ff, $00, $01			; DATA
4984   338C 02 20 40 60 				.db			$02, $20, $40, $60			; DATA
4985   3390 61 62 63 80 				.db			$61, $62, $63, $80			; DATA
4986   3394 83 A0 A1 A2 				.db			$83, $a0, $a1, $a2			; DATA
4987   3398 A3 FF 00 01 				.db			$a3, $ff, $00, $01			; DATA
4988   339C 02 03 23 42 				.db			$02, $03, $23, $42			; DATA
4989   33A0 43 61 62 81 				.db			$43, $61, $62, $81			; DATA
4990   33A4 A1 FF 01 02 				.db			$a1, $ff, $01, $02			; DATA
4991   33A8 03 21 23 40 				.db			$03, $21, $23, $40			; DATA
4992   33AC 41 42 43 60 				.db			$41, $42, $43, $60			; DATA
4993   33B0 63 80 83 A0 				.db			$63, $80, $83, $a0			; DATA
4994   33B4 A1 A2 A3 FF 				.db			$a1, $a2, $a3, $ff			; DATA
4995   33B8 00 01 02 03 				.db			$00, $01, $02, $03			; DATA
4996   33BC 20 23 40 41 				.db			$20, $23, $40, $41			; DATA
4997   33C0 42 43 63 83 				.db			$42, $43, $63, $83			; DATA
4998   33C4 A1 A2 A3 FF 				.db			$a1, $a2, $a3, $ff			; DATA
4999   33C8             	
5000   33C8             L33c8:
5001   33C8 00 0D 17 25 				.db			$00, $0d, $17, $25			;
5002   33CC 31 3F 4E 5E 				.db			$31, $3f, $4e, $5e			;
5003   33D0 6A 7C       				.db			$6a, $7c								; 
5004   33D2             
5005   33D2             L33d2:
5006   33D2 B8 C0 C8 D0 				.db			$b8, $c0, $c8, $d0			; 
5007   33D6 D8 E0 E8 F0 				.db			$d8, $e0, $e8, $f0			;
5008   33DA FF          				.db			$ff
5009   33DB             				
5010   33DB             				;; Table (8 entries)
5011   33DB             L33db:
5012   33DB 20 04 40 08 				.db			$20, $04, $40, $08			;
5013   33DF 40 04 20 08 				.db			$40, $04, $20, $08			;
5014   33E3             
5015   33E3             				;; Table (audio)
5016   33E3             L33e3:
5017   33E3 C0 C8 D0 D8 				.db			$c0, $c8, $d0, $d8			; 
5018   33E7 E0 E8 F0 FF 				.db			$e0, $e8, $f0, $ff			; 
5019   33EB C0 C8 D0 D8 				.db			$c0, $c8, $d0, $d8			; 
5020   33EF E0 E8 FF F0 				.db			$e0, $e8, $ff, $f0			; 
5021   33F3 FF F0 FF    				.db			$ff, $f0, $ff						; 
5022   33F6             				
5023   33F6             L33f6:
5024   33F6 03 03 03 03 				.db			$03, $03, $03, $03			; 
5025   33FA 03 03 03 03 				.db			$03, $03, $03, $03			; 
5026   33FE 03 04 04 05 				.db			$03, $04, $04, $05			; 
5027   3402 06 07 01 08 				.db			$06, $07, $01, $08			; 
5028   3406 01 09 09    				.db			$01, $09, $09						; 
5029   3409             				
5030   3409             L3409:
5031   3409 D0 D0 00 00 				.db			$d0, $d0, $00, $00			; 
5032   340D 00 00 D0 D0 				.db			$00, $00, $d0, $d0			; 
5033   3411             
5034   3411             L3411:
5035   3411 F3 F0 F2 F1 				.db			$f3, $f0, $f2, $f1			; 
5036   3415 F2 F1 F3 F0 				.db			$f2, $f1, $f3, $f0			; 
5037   3419             
5038   3419             L3419:
5039   3419 00 01 00 FF 				.db			$00, $01, $00, $ff			; 
5040   341D 00 FF 00 01 				.db			$00, $ff, $00, $01			; 
5041   3421             
5042   3421             L3421:
5043   3421 01 00 FF 00 				.db			$01, $00, $ff, $00			; 
5044   3425 FF 00 01 00 				.db			$ff, $00, $01, $00			; 
5045   3429             				
5046   3429             L3429:
5047   3429 C0 CA D0 CA 				.db			$c0, $ca, $d0, $ca			; DATA
5048   342D D8 D0 DC D8 				.db			$d8, $d0, $dc, $d8			; DATA
5049   3431 E0 C0 CA D0 				.db			$e0, $c0, $ca, $d0			; DATA
5050   3435 CA D8 D0 DC 				.db			$ca, $d8, $d0, $dc			; DATA
5051   3439 D8 E0 C0 CA 				.db			$d8, $e0, $c0, $ca			; DATA
5052   343D D0 CA D0 D8 				.db			$d0, $ca, $d0, $d8			; DATA
5053   3441 E0 E8       				.db			$e0, $e8								; DATA
5054   3443             
5055   3443             L3443:
5056   3443 03 03 03 03 				.db			$03, $03, $03, $03			; DATA
5057   3447 03 03 03 03 				.db			$03, $03, $03, $03			; DATA
5058   344B 03 01 01 01 				.db			$03, $01, $01, $01			; DATA
5059   344F 01 01 01 01 				.db			$01, $01, $01, $01			; DATA
5060   3453 01 01 01 01 				.db			$01, $01, $01, $01			; DATA
5061   3457 01 01 01 01 				.db			$01, $01, $01, $01			; DATA
5062   345B 01 7F       				.db			$01, $7f								; DATA
5063   345D             
5064   345D             				;; Table (4 entries)
5065   345D             L345d:
5066   345D FF E8 E0 D0 				.db			$ff, $e8, $e0, $d0			; DATA
5067   3461             
5068   3461             				;; Table ??
5069   3461             L3461:
5070   3461 00 0E 00 0E 				.db			$00, $0e, $00, $0e			; DATA
5071   3465 00 0E 00 0E 				.db			$00, $0e, $00, $0e			; DATA
5072   3469 40 4A 40 4A 				.db			$40, $4a, $40, $4a			; DATA
5073   346D 40 4A 40 4A 				.db			$40, $4a, $40, $4a			; DATA
5074   3471 1B 28 1B 28 				.db			$1b, $28, $1b, $28			; DATA
5075   3475 1B 28 1B 28 				.db			$1b, $28, $1b, $28			; DATA
5076   3479 55 5E 55 5E 				.db			$55, $5e, $55, $5e			; DATA
5077   347D 55 5E 55 5E 				.db			$55, $5e, $55, $5e			; DATA
5078   3481 1B FF 1B FF 				.db			$1b, $ff, $1b, $ff			; DATA
5079   3485 40 FF 40 FF 				.db			$40, $ff, $40, $ff			; DATA
5080   3489 28 FF 28 FF 				.db			$28, $ff, $28, $ff			; DATA
5081   348D 4A FF 4A FF 				.db			$4a, $ff, $4a, $ff			; DATA
5082   3491 1B FF 1B FF 				.db			$1b, $ff, $1b, $ff			; DATA
5083   3495 40 FF 40 FF 				.db			$40, $ff, $40, $ff			; DATA
5084   3499 28 FF 28 FF 				.db			$28, $ff, $28, $ff			; DATA
5085   349D 4A FF 4A FF 				.db			$4a, $ff, $4a, $ff			; DATA
5086   34A1             
5087   34A1             				;; Table
5088   34A1             L34a1:
5089   34A1 ED EB E9 E7 				.db			$ed, $eb, $e9, $e7			; ??
5090   34A5 E5 E3 E1 DF 				.db			$e5, $e3, $e1, $df			; ??
5091   34A9 FF          				.db			$ff											; ?? 
5092   34AA             
5093   34AA             				;; Table (4 entries)
5094   34AA             L34aa:
5095   34AA 0E FF 00 FF 				.db			$0e, $ff, $00, $ff
5096   34AE             
5097   34AE             
5098   34AE             				;;
5099   34AE             				;; More gfx codes
5100   34AE             				;;
5101   34AE             
5102   34AE             .include "specchar2.asm"
0001+  34AE             				;; Custom maze chars per-level
0002+  34AE             ;;			.org		$34ae
0003+  34AE             L34ae:
0004+  34AE 7F          				.db			$7f											; ..##############
0005+  34AF BF          				.db			$bf											; ##..############
0006+  34B0 DF          				.db			$df											; ####..##########
0007+  34B1 EF          				.db			$ef											; ######..########
0008+  34B2 F7          				.db			$f7											; ########..######
0009+  34B3 FB          				.db			$fb											; ##########..####
0010+  34B4 FD          				.db			$fd											; ############..##
0011+  34B5 FE          				.db			$fe											; ##############..
0012+  34B6             
0013+  34B6             L34b6:
0014+  34B6 FE          				.db			$fe											; ##############..
0015+  34B7 FD          				.db			$fd											; ############..##
0016+  34B8 FB          				.db			$fb											; ##########..####
0017+  34B9 F7          				.db			$f7											; ########..######
0018+  34BA EF          				.db			$ef											; ######..########
0019+  34BB DF          				.db			$df											; ####..##########
0020+  34BC BF          				.db			$bf											; ##..############
0021+  34BD 7F          				.db			$7f											; ..##############
0022+  34BE             
0023+  34BE             L34be:
0024+  34BE FE          				.db			$fe											; ##############..
0025+  34BF FD          				.db			$fd											; ############..##
0026+  34C0 FB          				.db			$fb											; ##########..####
0027+  34C1 F7          				.db			$f7											; ########..######
0028+  34C2 EF          				.db			$ef											; ######..########
0029+  34C3 DF          				.db			$df											; ####..##########
0030+  34C4 BF          				.db			$bf											; ##..############
0031+  34C5 7F          				.db			$7f											; ..##############
0032+  34C6             
0033+  34C6             L34c6:
0034+  34C6 7F          				.db			$7f											; ..##############
0035+  34C7 BF          				.db			$bf											; ##..############
0036+  34C8 DF          				.db			$df											; ####..##########
0037+  34C9 EF          				.db			$ef											; ######..########
0038+  34CA F7          				.db			$f7											; ########..######
0039+  34CB FB          				.db			$fb											; ##########..####
0040+  34CC FD          				.db			$fd											; ############..##
0041+  34CD FE          				.db			$fe											; ##############..
0042+  34CE             
0043+  34CE             L34ce:
0044+  34CE 0F          				.db			$0f											; ........########
0045+  34CF 18          				.db			$18											; ......####......
0046+  34D0 30          				.db			$30											; ....####........
0047+  34D1 60          				.db			$60											; ..####..........
0048+  34D2 C0          				.db			$c0											; ####............
0049+  34D3 80          				.db			$80											; ##..............
0050+  34D4 80          				.db			$80											; ##..............
0051+  34D5 80          				.db			$80											; ##..............
0052+  34D6             
0053+  34D6             L34d6:
0054+  34D6 F0          				.db			$f0											; ########........
0055+  34D7 18          				.db			$18											; ......####......
0056+  34D8 0C          				.db			$0c											; ........####....
0057+  34D9 06          				.db			$06											; ..........####..
0058+  34DA 03          				.db			$03											; ............####
0059+  34DB 01          				.db			$01											; ..............##
0060+  34DC 01          				.db			$01											; ..............##
0061+  34DD 01          				.db			$01											; ..............##
0062+  34DE             
0063+  34DE             L34de:
0064+  34DE 80          				.db			$80											; ##..............
0065+  34DF 80          				.db			$80											; ##..............
0066+  34E0 80          				.db			$80											; ##..............
0067+  34E1 C0          				.db			$c0											; ####............
0068+  34E2 60          				.db			$60											; ..####..........
0069+  34E3 30          				.db			$30											; ....####........
0070+  34E4 18          				.db			$18											; ......####......
0071+  34E5 0F          				.db			$0f											; ........########
0072+  34E6             
0073+  34E6             L34e6:
0074+  34E6 01          				.db			$01											; ..............##
0075+  34E7 01          				.db			$01											; ..............##
0076+  34E8 01          				.db			$01											; ..............##
0077+  34E9 03          				.db			$03											; ............####
0078+  34EA 06          				.db			$06											; ..........####..
0079+  34EB 0C          				.db			$0c											; ........####....
0080+  34EC 18          				.db			$18											; ......####......
0081+  34ED F0          				.db			$f0											; ########........
0082+  34EE             
0083+  34EE             L34ee:
0084+  34EE 0F          				.db			$0f											; ........########
0085+  34EF 07          				.db			$07											; ..........######
0086+  34F0 03          				.db			$03											; ............####
0087+  34F1 03          				.db			$03											; ............####
0088+  34F2 83          				.db			$83											; ##..........####
0089+  34F3 C3          				.db			$c3											; ####........####
0090+  34F4 FF          				.db			$ff											; ################
0091+  34F5 FF          				.db			$ff											; ################
0092+  34F6             
0093+  34F6             L34f6:
0094+  34F6 F0          				.db			$f0											; ########........
0095+  34F7 E0          				.db			$e0											; ######..........
0096+  34F8 C0          				.db			$c0											; ####............
0097+  34F9 C0          				.db			$c0											; ####............
0098+  34FA C1          				.db			$c1											; ####..........##
0099+  34FB C3          				.db			$c3											; ####........####
0100+  34FC FF          				.db			$ff											; ################
0101+  34FD FF          				.db			$ff											; ################
0102+  34FE             
0103+  34FE             L34fe:
0104+  34FE FF          				.db			$ff											; ################
0105+  34FF FF          				.db			$ff											; ################
0106+  3500 C3          				.db			$c3											; ####........####
0107+  3501 83          				.db			$83											; ##..........####
0108+  3502 03          				.db			$03											; ............####
0109+  3503 03          				.db			$03											; ............####
0110+  3504 07          				.db			$07											; ..........######
0111+  3505 0F          				.db			$0f											; ........########
0112+  3506             
0113+  3506             L3506:
0114+  3506 FF          				.db			$ff											; ################
0115+  3507 FF          				.db			$ff											; ################
0116+  3508 C3          				.db			$c3											; ####........####
0117+  3509 C1          				.db			$c1											; ####..........##
0118+  350A C0          				.db			$c0											; ####............
0119+  350B C0          				.db			$c0											; ####............
0120+  350C E0          				.db			$e0											; ######..........
0121+  350D F0          				.db			$f0											; ########........
0122+  350E             
0123+  350E             L350e:
0124+  350E 07          				.db			$07											; ..........######
0125+  350F 1F          				.db			$1f											; ......##########
0126+  3510 3F          				.db			$3f											; ....############
0127+  3511 7F          				.db			$7f											; ..##############
0128+  3512 7F          				.db			$7f											; ..##############
0129+  3513 FF          				.db			$ff											; ################
0130+  3514 FF          				.db			$ff											; ################
0131+  3515 FF          				.db			$ff											; ################
0132+  3516             
0133+  3516             L3516:
0134+  3516 E0          				.db			$e0											; ######..........
0135+  3517 F8          				.db			$f8											; ##########......
0136+  3518 FC          				.db			$fc											; ############....
0137+  3519 FE          				.db			$fe											; ##############..
0138+  351A FE          				.db			$fe											; ##############..
0139+  351B FF          				.db			$ff											; ################
0140+  351C FB          				.db			$fb											; ##########..####
0141+  351D F1          				.db			$f1											; ########......##
0142+  351E             
0143+  351E             L351e:
0144+  351E FF          				.db			$ff											; ################
0145+  351F FF          				.db			$ff											; ################
0146+  3520 FF          				.db			$ff											; ################
0147+  3521 7F          				.db			$7f											; ..##############
0148+  3522 7C          				.db			$7c											; ..##########....
0149+  3523 38          				.db			$38											; ....######......
0150+  3524 1C          				.db			$1c											; ......######....
0151+  3525 07          				.db			$07											; ..........######
0152+  3526             
0153+  3526             L3526:
0154+  3526 E1          				.db			$e1											; ######........##
0155+  3527 E1          				.db			$e1											; ######........##
0156+  3528 C1          				.db			$c1											; ####..........##
0157+  3529 02          				.db			$02											; ............##..
0158+  352A 02          				.db			$02											; ............##..
0159+  352B 04          				.db			$04											; ..........##....
0160+  352C 18          				.db			$18											; ......####......
0161+  352D E0          				.db			$e0											; ######..........
0162+  352E             
0163+  352E             L352e:
0164+  352E 01          				.db			$01											; ..............##
0165+  352F 03          				.db			$03											; ............####
0166+  3530 07          				.db			$07											; ..........######
0167+  3531 0F          				.db			$0f											; ........########
0168+  3532 1F          				.db			$1f											; ......##########
0169+  3533 3F          				.db			$3f											; ....############
0170+  3534 7F          				.db			$7f											; ..##############
0171+  3535 FF          				.db			$ff											; ################
0172+  3536             
0173+  3536             L3536:
0174+  3536 80          				.db			$80											; ##..............
0175+  3537 C0          				.db			$c0											; ####............
0176+  3538 E0          				.db			$e0											; ######..........
0177+  3539 F0          				.db			$f0											; ########........
0178+  353A F8          				.db			$f8											; ##########......
0179+  353B FC          				.db			$fc											; ############....
0180+  353C FE          				.db			$fe											; ##############..
0181+  353D FF          				.db			$ff											; ################
0182+  353E             
0183+  353E             L353e:
0184+  353E FF          				.db			$ff											; ################
0185+  353F 7F          				.db			$7f											; ..##############
0186+  3540 3F          				.db			$3f											; ....############
0187+  3541 1F          				.db			$1f											; ......##########
0188+  3542 0F          				.db			$0f											; ........########
0189+  3543 07          				.db			$07											; ..........######
0190+  3544 03          				.db			$03											; ............####
0191+  3545 01          				.db			$01											; ..............##
0192+  3546             
0193+  3546             L3546:
0194+  3546 FF          				.db			$ff											; ################
0195+  3547 FE          				.db			$fe											; ##############..
0196+  3548 FC          				.db			$fc											; ############....
0197+  3549 F8          				.db			$f8											; ##########......
0198+  354A F0          				.db			$f0											; ########........
0199+  354B E0          				.db			$e0											; ######..........
0200+  354C C0          				.db			$c0											; ####............
0201+  354D 80          				.db			$80											; ##..............
0202+  354E             
0203+  354E             L354e:
0204+  354E 03          				.db			$03											; ............####
0205+  354F 0F          				.db			$0f											; ........########
0206+  3550 3F          				.db			$3f											; ....############
0207+  3551 1F          				.db			$1f											; ......##########
0208+  3552 4F          				.db			$4f											; ..##....########
0209+  3553 FC          				.db			$fc											; ############....
0210+  3554 78          				.db			$78											; ..########......
0211+  3555 70          				.db			$70											; ..######........
0212+  3556             
0213+  3556             L3556:
0214+  3556 40          				.db			$40											; ..##............
0215+  3557 E8          				.db			$e8											; ######..##......
0216+  3558 78          				.db			$78											; ..########......
0217+  3559 FC          				.db			$fc											; ############....
0218+  355A F8          				.db			$f8											; ##########......
0219+  355B BE          				.db			$be											; ##..##########..
0220+  355C 3F          				.db			$3f											; ....############
0221+  355D 1E          				.db			$1e											; ......########..
0222+  355E             
0223+  355E             L355e:
0224+  355E F0          				.db			$f0											; ########........
0225+  355F 78          				.db			$78											; ..########......
0226+  3560 F9          				.db			$f9											; ##########....##
0227+  3561 7F          				.db			$7f											; ..##############
0228+  3562 0F          				.db			$0f											; ........########
0229+  3563 1B          				.db			$1b											; ......####..####
0230+  3564 1F          				.db			$1f											; ......##########
0231+  3565 02          				.db			$02											; ............##..
0232+  3566             
0233+  3566             L3566:
0234+  3566 0F          				.db			$0f											; ........########
0235+  3567 1F          				.db			$1f											; ......##########
0236+  3568 3E          				.db			$3e											; ....##########..
0237+  3569 FE          				.db			$fe											; ##############..
0238+  356A F4          				.db			$f4											; ########..##....
0239+  356B D0          				.db			$d0											; ####..##........
0240+  356C C8          				.db			$c8											; ####....##......
0241+  356D 40          				.db			$40											; ..##............
0242+  356E             
0243+  356E             L356e:
0244+  356E 01          				.db			$01											; ..............##
0245+  356F 03          				.db			$03											; ............####
0246+  3570 06          				.db			$06											; ..........####..
0247+  3571 0E          				.db			$0e											; ........######..
0248+  3572 14          				.db			$14											; ......##..##....
0249+  3573 2C          				.db			$2c											; ....##..####....
0250+  3574 48          				.db			$48											; ..##....##......
0251+  3575 98          				.db			$98											; ##....####......
0252+  3576             
0253+  3576             L3576:
0254+  3576 80          				.db			$80											; ##..............
0255+  3577 C0          				.db			$c0											; ####............
0256+  3578 60          				.db			$60											; ..####..........
0257+  3579 70          				.db			$70											; ..######........
0258+  357A 28          				.db			$28											; ....##..##......
0259+  357B 34          				.db			$34											; ....####..##....
0260+  357C 12          				.db			$12											; ......##....##..
0261+  357D 13          				.db			$13											; ......##....####
0262+  357E             
0263+  357E             L357e:
0264+  357E 90          				.db			$90											; ##....##........
0265+  357F B0          				.db			$b0											; ##..####........
0266+  3580 A0          				.db			$a0											; ##..##..........
0267+  3581 E0          				.db			$e0											; ######..........
0268+  3582 C0          				.db			$c0											; ####............
0269+  3583 C0          				.db			$c0											; ####............
0270+  3584 80          				.db			$80											; ##..............
0271+  3585 FF          				.db			$ff											; ################
0272+  3586             
0273+  3586             L3586:
0274+  3586 09          				.db			$09											; ........##....##
0275+  3587 0D          				.db			$0d											; ........####..##
0276+  3588 05          				.db			$05											; ..........##..##
0277+  3589 07          				.db			$07											; ..........######
0278+  358A 03          				.db			$03											; ............####
0279+  358B 03          				.db			$03											; ............####
0280+  358C 01          				.db			$01											; ..............##
0281+  358D FF          				.db			$ff											; ################
0282+  358E             
0283+  358E             L358e:
0284+  358E 3F          				.db			$3f											; ....############
0285+  358F 50          				.db			$50											; ..##..##........
0286+  3590 90          				.db			$90											; ##....##........
0287+  3591 FF          				.db			$ff											; ################
0288+  3592 90          				.db			$90											; ##....##........
0289+  3593 90          				.db			$90											; ##....##........
0290+  3594 90          				.db			$90											; ##....##........
0291+  3595 90          				.db			$90											; ##....##........
0292+  3596             
0293+  3596             L3596:
0294+  3596 FF          				.db			$ff											; ################
0295+  3597 03          				.db			$03											; ............####
0296+  3598 05          				.db			$05											; ..........##..##
0297+  3599 F9          				.db			$f9											; ##########....##
0298+  359A 09          				.db			$09											; ........##....##
0299+  359B 09          				.db			$09											; ........##....##
0300+  359C 09          				.db			$09											; ........##....##
0301+  359D 09          				.db			$09											; ........##....##
0302+  359E             
0303+  359E             L359e:
0304+  359E 90          				.db			$90											; ##....##........
0305+  359F 90          				.db			$90											; ##....##........
0306+  35A0 90          				.db			$90											; ##....##........
0307+  35A1 90          				.db			$90											; ##....##........
0308+  35A2 9F          				.db			$9f											; ##....##########
0309+  35A3 A0          				.db			$a0											; ##..##..........
0310+  35A4 C0          				.db			$c0											; ####............
0311+  35A5 FF          				.db			$ff											; ################
0312+  35A6             
0313+  35A6             L35a6:
0314+  35A6 09          				.db			$09											; ........##....##
0315+  35A7 09          				.db			$09											; ........##....##
0316+  35A8 09          				.db			$09											; ........##....##
0317+  35A9 09          				.db			$09											; ........##....##
0318+  35AA FF          				.db			$ff											; ################
0319+  35AB 09          				.db			$09											; ........##....##
0320+  35AC 0A          				.db			$0a											; ........##..##..
0321+  35AD FC          				.db			$fc											; ############....
0322+  35AE             
0323+  35AE             L35ae:
0324+  35AE 00          				.db			$00											; ................
0325+  35AF 03          				.db			$03											; ............####
0326+  35B0 63          				.db			$63											; ..####......####
0327+  35B1 6B          				.db			$6b											; ..####..##..####
0328+  35B2 FF          				.db			$ff											; ################
0329+  35B3 FE          				.db			$fe											; ##############..
0330+  35B4 7C          				.db			$7c											; ..##########....
0331+  35B5 78          				.db			$78											; ..########......
0332+  35B6             
0333+  35B6             L35b6:
0334+  35B6 00          				.db			$00											; ................
0335+  35B7 CE          				.db			$ce											; ####....######..
0336+  35B8 FC          				.db			$fc											; ############....
0337+  35B9 F8          				.db			$f8											; ##########......
0338+  35BA F0          				.db			$f0											; ########........
0339+  35BB 60          				.db			$60											; ..####..........
0340+  35BC 30          				.db			$30											; ....####........
0341+  35BD 1E          				.db			$1e											; ......########..
0342+  35BE             
0343+  35BE             L35be:
0344+  35BE 78          				.db			$78											; ..########......
0345+  35BF 1C          				.db			$1c											; ......######....
0346+  35C0 05          				.db			$05											; ..........##..##
0347+  35C1 3F          				.db			$3f											; ....############
0348+  35C2 7F          				.db			$7f											; ..##############
0349+  35C3 FF          				.db			$ff											; ################
0350+  35C4 F7          				.db			$f7											; ########..######
0351+  35C5 63          				.db			$63											; ..####......####
0352+  35C6             
0353+  35C6             L35c6:
0354+  35C6 1E          				.db			$1e											; ......########..
0355+  35C7 3E          				.db			$3e											; ....##########..
0356+  35C8 3C          				.db			$3c											; ....########....
0357+  35C9 F0          				.db			$f0											; ########........
0358+  35CA FC          				.db			$fc											; ############....
0359+  35CB EE          				.db			$ee											; ######..######..
0360+  35CC C7          				.db			$c7											; ####......######
0361+  35CD 86          				.db			$86											; ##........####..
0362+  35CE             
0363+  35CE             L35ce:
0364+  35CE 49          				.db			$49											; ..##....##....##
0365+  35CF 92          				.db			$92											; ##....##....##..
0366+  35D0 24          				.db			$24											; ....##....##....
0367+  35D1 49          				.db			$49											; ..##....##....##
0368+  35D2 92          				.db			$92											; ##....##....##..
0369+  35D3 24          				.db			$24											; ....##....##....
0370+  35D4 49          				.db			$49											; ..##....##....##
0371+  35D5 92          				.db			$92											; ##....##....##..
0372+  35D6             
0373+  35D6             L35d6:
0374+  35D6 92          				.db			$92											; ##....##....##..
0375+  35D7 49          				.db			$49											; ..##....##....##
0376+  35D8 24          				.db			$24											; ....##....##....
0377+  35D9 92          				.db			$92											; ##....##....##..
0378+  35DA 49          				.db			$49											; ..##....##....##
0379+  35DB 24          				.db			$24											; ....##....##....
0380+  35DC 92          				.db			$92											; ##....##....##..
0381+  35DD 49          				.db			$49											; ..##....##....##
0382+  35DE             
0383+  35DE             L35de:
0384+  35DE 92          				.db			$92											; ##....##....##..
0385+  35DF 49          				.db			$49											; ..##....##....##
0386+  35E0 24          				.db			$24											; ....##....##....
0387+  35E1 92          				.db			$92											; ##....##....##..
0388+  35E2 49          				.db			$49											; ..##....##....##
0389+  35E3 24          				.db			$24											; ....##....##....
0390+  35E4 92          				.db			$92											; ##....##....##..
0391+  35E5 49          				.db			$49											; ..##....##....##
0392+  35E6             
0393+  35E6             L35e6:
0394+  35E6 49          				.db			$49											; ..##....##....##
0395+  35E7 92          				.db			$92											; ##....##....##..
0396+  35E8 24          				.db			$24											; ....##....##....
0397+  35E9 49          				.db			$49											; ..##....##....##
0398+  35EA 92          				.db			$92											; ##....##....##..
0399+  35EB 24          				.db			$24											; ....##....##....
0400+  35EC 49          				.db			$49											; ..##....##....##
0401+  35ED 92          				.db			$92											; ##....##....##..
0402+  35EE             
0403+  35EE             				.end5103   35EE             
5104   35EE             
5105   35EE             				;; ???
5106   35EE             L35ee:
5107   35EE 02 0A       				.db			$02, $0a
5108   35F0 12 52       				.db			$12, $52
5109   35F2 62 72       				.db			$62, $72
5110   35F4             
5111   35F4             				;; 4 byte table -- 4 entries?
5112   35F4             L35f4:
5113   35F4 24 18 18 24 				.db			$24, $18, $18, $24			; DATA
5114   35F8 08 38 1C 10 				.db			$08, $38, $1c, $10			; DATA
5115   35FC 10 1C 38 08 				.db			$10, $1c, $38, $08			; DATA
5116   3600 00 18 18 00 				.db			$00, $18, $18, $00			; DATA
5117   3604             
5118   3604             				;; Table
5119   3604             L3604:
5120   3604 A0 A4 A8 BA 				.db			$a0, $a4, $a8, $ba			; DATA
5121   3608             
5122   3608             L3608:
5123   3608 22 82 44 41 				.db			$22, $82, $44, $41			; 
5124   360C             
5125   360C             				;; Table
5126   360C             L360c:
5127   360C 02 03 62 63 				.db			$02, $03, $62, $63			;
5128   3610 43 63 40 60 				.db			$43, $63, $40, $60			;
5129   3614             
5130   3614             				;; Table
5131   3614             L3614:
5132   3614 22 23 82 83 				.db			$22, $23, $82, $83			;
5133   3618 44 64 41 61 				.db			$44, $64, $41, $61			;
5134   361C             
5135   361C             				;; Table
5136   361C             L361c:
5137   361C 42 43 A2 A3 				.db			$42, $43, $A2, $A3			;
5138   3620 45 65 42 62 				.db			$45, $65, $42, $62			;
5139   3624             
5140   3624             				;; Table
5141   3624             L3624:
5142   3624 9A AA BC CD 				.db			$9A, $AA, $BC, $CD			;
5143   3628 D5 DE E7 FF 				.db			$D5, $DE, $E7, $FF			;
5144   362C             
5145   362C             
5146   362C             				;;
5147   362C             				;; String data
5148   362C             
5149   362C             .include "spectext.asm"
0001+  362C             				;; German text
0002+  362C             GER00:
0003+  362C             L362c:
0004+  362C 32 20 4C 45 				.db			"2 LEUTE "
0004+  3630 55 54 45 20 
0005+  3634 31 20 47 45 				.db			"1 GELDST"
0005+  3638 4C 44 53 54 
0006+  363C 55 45 43 4B 				.db			"UECK ", $00
0006+  3640 20 00 
0007+  3642             
0008+  3642             GER01:
0009+  3642             L3642:
0010+  3642 31 20 50 45 				.db			"1 PERSON"
0010+  3646 52 53 4F 4E 
0011+  364A 20 31 20 47 				.db			" 1 GELDS"
0011+  364E 45 4C 44 53 
0012+  3652 54 55 45 43 				.db			"TUECK", $00
0012+  3656 4B 00 
0013+  3658             
0014+  3658             GER02:
0015+  3658             L3658:
0016+  3658 32 20 4C 45 				.db			"2 LEUTE "
0016+  365C 55 54 45 20 
0017+  3660 20 32 20 47 				.db			" 2 GELDS"
0017+  3664 45 4C 44 53 
0018+  3668 54 55 45 43 				.db			"TUECKE", $00
0018+  366C 4B 45 00 
0019+  366F             
0020+  366F             GER03:
0021+  366F             L366f:
0022+  366F 31 20 50 45 				.db			"1 PERSON"
0022+  3673 52 53 4F 4E 
0023+  3677 20 32 20 47 				.db			" 2 GELDS"
0023+  367B 45 4C 44 53 
0024+  367F 54 55 45 43 				.db			"TUECKE", $00
0024+  3683 4B 45 00 
0025+  3686             
0026+  3686             GER04:
0027+  3686             L3686:
0028+  3686 32 20 4C 45 				.db			"2 LEUTE "
0028+  368A 55 54 45 20 
0029+  368E 20 34 20 47 				.db			" 4 GELDS"
0029+  3692 45 4C 44 53 
0030+  3696 54 55 45 43 				.db			"TUECKE", $00
0030+  369A 4B 45 00 
0031+  369D             
0032+  369D             GER05:
0033+  369D             L369d:
0034+  369D 47 45 4C 44 				.db			"GELDSTUE"
0034+  36A1 53 54 55 45 
0035+  36A5 43 4B 45 49 				.db			"CKEINSTE"
0035+  36A9 4E 53 54 45 
0036+  36AD 43 4B 45 4E 				.db			"CKEN", $00
0036+  36B1 00 
0037+  36B2             
0038+  36B2             GER06:
0039+  36B2             L36b2:
0040+  36B2 4F 44 45 52 				.db			"ODER  KN"
0040+  36B6 20 20 4B 4E 
0041+  36BA 4F 50 46 20 				.db			"OPF DRUE"
0041+  36BE 44 52 55 45 
0042+  36C2 43 4B 45 4E 				.db			"CKEN", $00
0042+  36C6 00 
0043+  36C7             
0044+  36C7             GER07:
0045+  36C7             L36c7:
0046+  36C7 20 20 20 20 				.db			"        "
0046+  36CB 20 20 20 20 
0047+  36CF 20 20 20 20 				.db			"        "
0047+  36D3 20 20 20 20 
0048+  36D7 20 20 20 20 				.db			"    ", $00
0048+  36DB 00 
0049+  36DC             
0050+  36DC             GER08:
0051+  36DC             L36dc:
0052+  36DC 50 52 41 45 				.db			"PRAEMIE", $00
0052+  36E0 4D 49 45 00 
0053+  36E4             
0054+  36E4             GER09:
0055+  36E4             L36e4:
0056+  36E4 4B 52 45 44 				.db			"KREDIT", $00
0056+  36E8 49 54 00 
0057+  36EB             
0058+  36EB             GER0A:
0059+  36EB             L36eb:
0060+  36EB 43 4F 50 59 				.db			"COPYRIGH"
0060+  36EF 52 49 47 48 
0061+  36F3 54 20 5F 20 				.db			"T _ 1980"
0061+  36F7 31 39 38 30 
0062+  36FB 20 42 59 20 				.db			" BY EXID"
0062+  36FF 45 58 49 44 
0063+  3703 59 20 49 4E 				.db			"Y INC", $00
0063+  3707 43 00 
0064+  3709             
0065+  3709             GER0B:
0066+  3709             L3709:
0067+  3709 53 50 45 43 				.db			"SPECTAR", $00
0067+  370D 54 41 52 00 
0068+  3711             
0069+  3711             GER0C:
0070+  3711             L3711:
0071+  3711 41 43 48 54 				.db			"ACHTUNG", $00
0071+  3715 55 4E 47 00 
0072+  3719             
0073+  3719             GER0D:
0074+  3719             L3719:
0075+  3719 53 50 49 45 				.db			"SPIELER "
0075+  371D 4C 45 52 20 
0076+  3721 20 00       				.db			" ", $00
0077+  3723             
0078+  3723             GER0E:
0079+  3723             L3723:
0080+  3723 01 20 31 30 				.db			$01, " 10 PUN"
0080+  3727 20 50 55 4E 
0081+  372B 4B 54 45 00 				.db			"KTE", $00
0082+  372F             
0083+  372F             GER0F:
0084+  372F             L372f:
0085+  372F 53 50 49 45 				.db			"SPIEL AU"
0085+  3733 4C 20 41 55 
0086+  3737 53 00       				.db			"S", $00
0087+  3739             
0088+  3739             GER10:
0089+  3739             L3739:
0090+  3739 55 42 45 52 				.db			"UBERTREF"
0090+  373D 54 52 45 46 
0091+  3741 46 45 4E 20 				.db			"FEN HOEC"
0091+  3745 48 4F 45 43 
0092+  3749 48 53 54 50 				.db			"HSTPUNKT"
0092+  374D 55 4E 4B 54 
0093+  3751 5A 41 48 4C 				.db			"ZAHL    "
0093+  3755 20 20 20 20 
0094+  3759 20 20 20 20 				.db			"    BIET"
0094+  375D 42 49 45 54 
0095+  3761 45 54 20 45 				.db			"ET EIN F"
0095+  3765 49 4E 20 46 
0096+  3769 52 45 49 53 				.db			"REISPIEL"
0096+  376D 50 49 45 4C 
0097+  3771 00          				.db			"", $00
0098+  3772             
0099+  3772             GER11:
0100+  3772             L3772:
0101+  3772 45 58 54 52 				.db			"EXTRA PU"
0101+  3776 41 20 50 55 
0102+  377A 4E 4B 54 45 				.db			"NKTE", $00
0102+  377E 00 
0103+  377F             
0104+  377F             GER12:
0105+  377F             L377f:
0106+  377F 45 58 54 52 				.db			"EXTRA SP"
0106+  3783 41 20 53 50 
0107+  3787 49 45 4C 20 				.db			"IEL FUR "
0107+  378B 46 55 52 20 
0108+  378F 53 50 49 45 				.db			"SPIELER", $00
0108+  3793 4C 45 52 00 
0109+  3797             
0110+  3797             GER13:
0111+  3797             L3797:
0112+  3797 48 4F 45 43 				.db			"HOECHSTP"
0112+  379B 48 53 54 50 
0113+  379F 55 4E 4B 54 				.db			"UNKTZAHL"
0113+  37A3 5A 41 48 4C 
0114+  37A7 20 55 45 42 				.db			" UEBERTR"
0114+  37AB 45 52 54 52 
0115+  37AF 4F 46 46 45 				.db			"OFFEN", $00
0115+  37B3 4E 00 
0116+  37B5             
0117+  37B5             GER14:
0118+  37B5             L37b5:
0119+  37B5 45 58 54 52 				.db			"EXTRA KR"
0119+  37B9 41 20 4B 52 
0120+  37BD 45 44 49 54 				.db			"EDIT ", $00
0120+  37C1 20 00 
0121+  37C3             
0122+  37C3             GER15:
0123+  37C3             L37c3:
0124+  37C3 55 42 45 52 				.db			"UBERTREF"
0124+  37C7 54 52 45 46 
0125+  37CB 46 45 4E 20 				.db			"FEN DER "
0125+  37CF 44 45 52 20 
0126+  37D3 48 4F 45 43 				.db			"HOECHSTP"
0126+  37D7 48 53 54 50 
0127+  37DB 55 4E 4B 54 				.db			"UNKTZAHL"
0127+  37DF 5A 41 48 4C 
0128+  37E3 00          				.db			"", $00
0129+  37E4             
0130+  37E4             GER16:
0131+  37E4             L37e4:
0132+  37E4 31 20 53 50 				.db			"1 SPIEL "
0132+  37E8 49 45 4C 20 
0133+  37EC 20 4F 4E 45 				.db			" ONE DM "
0133+  37F0 20 44 4D 20 
0134+  37F4 31 00       				.db			"1", $00
0135+  37F6             
0136+  37F6             GER17:
0137+  37F6             L37f6:
0138+  37F6 36 20 53 50 				.db			"6 SPIELE"
0138+  37FA 49 45 4C 45 
0139+  37FE 20 4F 4E 45 				.db			" ONE DM "
0139+  3802 20 44 4D 20 
0140+  3806 35 00       				.db			"5", $00
0141+  3808             
0142+  3808             GER18:
0143+  3808             L3808:
0144+  3808 31 20 53 50 				.db			"1 SPIEL "
0144+  380C 49 45 4C 20 
0145+  3810 20 32 58 20 				.db			" 2X DM 1"
0145+  3814 44 4D 20 31 
0146+  3818 00          				.db			"", $00
0147+  3819             
0148+  3819             GER19:
0149+  3819             L3819:
0150+  3819 33 20 53 50 				.db			"3 SPIELE"
0150+  381D 49 45 4C 45 
0151+  3821 20 4F 4E 45 				.db			" ONE DM "
0151+  3825 20 44 4D 20 
0152+  3829 35 00       				.db			"5", $00
0153+  382B             
0154+  382B             GER1A:
0155+  382B             L382b:
0156+  382B 48 4F 43 48 				.db			"HOCH", $00
0156+  382F 00 
0157+  3830             
0158+  3830             GER1B:
0159+  3830             L3830:
0160+  3830 45 49 4E 53 				.db			"EINS", $00
0160+  3834 00 
0161+  3835             
0162+  3835             GER1C:
0163+  3835             L3835:
0164+  3835 5A 57 45 49 				.db			"ZWEI", $00
0164+  3839 00 
0165+  383A             
0166+  383A             
0167+  383A             				;; English text
0168+  383A             ENG00:
0169+  383A             L383a:																	; 00 
0170+  383A 32 20 50 4C 				.db			"2 PLAYER"
0170+  383E 41 59 45 52 
0171+  3842 53 20 31 20 				.db			"S 1 COIN"
0171+  3846 43 4F 49 4E 
0172+  384A 20 00       				.db			" ", $00
0173+  384C             
0174+  384C             ENG01:
0175+  384C             L384c:																	; 01 
0176+  384C 31 20 50 4C 				.db			"1 PLAYER"
0176+  3850 41 59 45 52 
0177+  3854 20 20 31 20 				.db			"  1 COIN"
0177+  3858 43 4F 49 4E 
0178+  385C 20 00       				.db			" ", $00
0179+  385E             
0180+  385E             ENG02:
0181+  385E             L385e:																	; 02 
0182+  385E 32 20 50 4C 				.db			"2 PLAYER"
0182+  3862 41 59 45 52 
0183+  3866 53 20 32 20 				.db			"S 2 COIN"
0183+  386A 43 4F 49 4E 
0184+  386E 53 00       				.db			"S", $00
0185+  3870             
0186+  3870             ENG03:
0187+  3870             L3870:																	; 03 
0188+  3870 31 20 50 4C 				.db			"1 PLAYER"
0188+  3874 41 59 45 52 
0189+  3878 20 20 32 20 				.db			"  2 COIN"
0189+  387C 43 4F 49 4E 
0190+  3880 53 00       				.db			"S", $00
0191+  3882             
0192+  3882             ENG04:
0193+  3882             L3882:																	; 04 
0194+  3882 32 20 50 4C 				.db			"2 PLAYER"
0194+  3886 41 59 45 52 
0195+  388A 53 20 34 20 				.db			"S 4 COIN"
0195+  388E 43 4F 49 4E 
0196+  3892 53 00       				.db			"S", $00
0197+  3894             
0198+  3894             ENG05:
0199+  3894             L3894:																	; 05 
0200+  3894 44 45 50 4F 				.db			"DEPOSIT "
0200+  3898 53 49 54 20 
0201+  389C 43 4F 49 4E 				.db			"COIN", $00
0201+  38A0 00 
0202+  38A1             
0203+  38A1             ENG06:
0204+  38A1             L38a1:																	; 06 
0205+  38A1 4F 52 20 50 				.db			"OR PRESS"
0205+  38A5 52 45 53 53 
0206+  38A9 20 53 54 41 				.db			" START", $00
0206+  38AD 52 54 00 
0207+  38B0             
0208+  38B0             ENG07:
0209+  38B0             L38b0:																	; 07 
0210+  38B0 4F 52 20 20 				.db			"OR      "
0210+  38B4 20 20 20 20 
0211+  38B8 20 20 20 20 				.db			"      ", $00
0211+  38BC 20 20 00 
0212+  38BF             
0213+  38BF             ENG08:
0214+  38BF             L38bf:																	; 08 
0215+  38BF 42 4F 4E 55 				.db			"BONUS", $00
0215+  38C3 53 00 
0216+  38C5             
0217+  38C5             ENG09:
0218+  38C5             L38c5:																	; 09 
0219+  38C5 43 52 45 44 				.db			"CREDITS", $00
0219+  38C9 49 54 53 00 
0220+  38CD             
0221+  38CD             ENG0A:
0222+  38CD             L38cd:																	; 0a 
0223+  38CD 43 4F 50 59 				.db			"COPYRIGH"
0223+  38D1 52 49 47 48 
0224+  38D5 54 20 5F 20 				.db			"T _ 1980"
0224+  38D9 31 39 38 30 
0225+  38DD 20 42 59 20 				.db			" BY EXID"
0225+  38E1 45 58 49 44 
0226+  38E5 59 20 49 4E 				.db			"Y INC", $00
0226+  38E9 43 00 
0227+  38EB             
0228+  38EB             ENG0B:
0229+  38EB             L38eb:																	; 0b 
0230+  38EB 53 50 45 43 				.db			"SPECTAR", $00
0230+  38EF 54 41 52 00 
0231+  38F3             
0232+  38F3             ENG0C:
0233+  38F3             L38f3:																	; 0c 
0234+  38F3 47 45 54 20 				.db			"GET READ"
0234+  38F7 52 45 41 44 
0235+  38FB 59 00       				.db			"Y", $00
0236+  38FD             
0237+  38FD             ENG0D:
0238+  38FD             L38fd:																	; 0d 
0239+  38FD 50 4C 41 59 				.db			"PLAYER  "
0239+  3901 45 52 20 20 
0240+  3905 20 00       				.db			" ", $00
0241+  3907             
0242+  3907             ENG0E:
0243+  3907             L3907:																	; 0e 
0244+  3907 01 20 31 30 				.db			$01, " 10 POI"
0244+  390B 20 50 4F 49 
0245+  390F 4E 54 53 00 				.db			"NTS", $00
0246+  3913             
0247+  3913             ENG0F:
0248+  3913             L3913:																	; 0f 
0249+  3913 45 4E 44 20 				.db			"END OF G"
0249+  3917 4F 46 20 47 
0250+  391B 41 4D 45 00 				.db			"AME", $00
0251+  391F             
0252+  391F             ENG10:
0253+  391F             L391f:																	; 10 
0254+  391F 54 4F 50 20 				.db			"TOP HIGH"
0254+  3923 48 49 47 48 
0255+  3927 20 53 43 4F 				.db			" SCORE F"
0255+  392B 52 45 20 46 
0256+  392F 4F 52 20 45 				.db			"OR EXTRA"
0256+  3933 58 54 52 41 
0257+  3937 20 50 4C 41 				.db			" PLAY", $00
0257+  393B 59 00 
0258+  393D             
0259+  393D             ENG11:
0260+  393D             L393d:																	; 11 
0261+  393D 45 58 54 52 				.db			"EXTRA PO"
0261+  3941 41 20 50 4F 
0262+  3945 49 4E 54 53 				.db			"INTS", $00
0262+  3949 00 
0263+  394A             
0264+  394A             ENG12:
0265+  394A             L394a:																	; 12 
0266+  394A 45 58 54 45 				.db			"EXTENDED"
0266+  394E 4E 44 45 44 
0267+  3952 20 50 4C 41 				.db			" PLAY FO"
0267+  3956 59 20 46 4F 
0268+  395A 52 20 50 4C 				.db			"R PLAYER"
0268+  395E 41 59 45 52 
0269+  3962 20 20 20 00 				.db			"   ", $00
0270+  3966             
0271+  3966             ENG13:
0272+  3966             L3966:																	; 13 
0273+  3966 54 4F 50 50 				.db			"TOPPING "
0273+  396A 49 4E 47 20 
0274+  396E 48 49 47 48 				.db			"HIGH SCO"
0274+  3972 20 53 43 4F 
0275+  3976 52 45 20 00 				.db			"RE ", $00
0276+  397A             
0277+  397A             ENG14:
0278+  397A             L397a:																	; 14 
0279+  397A 45 58 54 52 				.db			"EXTRA CR"
0279+  397E 41 20 43 52 
0280+  3982 45 44 49 54 				.db			"EDIT ", $00
0280+  3986 20 00 
0281+  3988             
0282+  3988             ENG15:
0283+  3988             L3988:																	; 15 
0284+  3988 46 4F 52 20 				.db			"FOR TOPP"
0284+  398C 54 4F 50 50 
0285+  3990 49 4E 47 20 				.db			"ING HIGH"
0285+  3994 48 49 47 48 
0286+  3998 20 53 43 4F 				.db			" SCORE", $00
0286+  399C 52 45 00 
0287+  399F             
0288+  399F             ENG16:
0289+  399F             L399f:																	; 16 
0290+  399F 31 20 47 41 				.db			"1 GAME  "
0290+  39A3 4D 45 20 20 
0291+  39A7 4F 4E 45 20 				.db			"ONE 10 P"
0291+  39AB 31 30 20 50 
0292+  39AF 45 4E 43 45 				.db			"ENCE COI"
0292+  39B3 20 43 4F 49 
0293+  39B7 4E 20 00    				.db			"N ", $00
0294+  39BA             
0295+  39BA             ENG17:
0296+  39BA             L39ba:																	; 17 
0297+  39BA 36 20 47 41 				.db			"6 GAMES "
0297+  39BE 4D 45 53 20 
0298+  39C2 4F 4E 45 20 				.db			"ONE 50 P"
0298+  39C6 35 30 20 50 
0299+  39CA 45 4E 43 45 				.db			"ENCE COI"
0299+  39CE 20 43 4F 49 
0300+  39D2 4E 00       				.db			"N", $00
0301+  39D4             
0302+  39D4             ENG18:
0303+  39D4             L39d4:																	; 18 
0304+  39D4 31 20 47 41 				.db			"1 GAME  "
0304+  39D8 4D 45 20 20 
0305+  39DC 54 57 4F 20 				.db			"TWO 10 P"
0305+  39E0 31 30 20 50 
0306+  39E4 45 4E 43 45 				.db			"ENCE COI"
0306+  39E8 20 43 4F 49 
0307+  39EC 4E 53 00    				.db			"NS", $00
0308+  39EF             
0309+  39EF             ENG19:
0310+  39EF             L39ef:																	; 19 
0311+  39EF 33 20 47 41 				.db			"3 GAMES "
0311+  39F3 4D 45 53 20 
0312+  39F7 4F 4E 45 20 				.db			"ONE 50 P"
0312+  39FB 35 30 20 50 
0313+  39FF 45 4E 43 45 				.db			"ENCE COI"
0313+  3A03 20 43 4F 49 
0314+  3A07 4E 00       				.db			"N", $00
0315+  3A09             
0316+  3A09             ENG1A:
0317+  3A09             L3a09:																	; 1a 
0318+  3A09 48 49 20 53 				.db			"HI SCR", $00
0318+  3A0D 43 52 00 
0319+  3A10             
0320+  3A10             ENG1B:
0321+  3A10             L3a10:																	; 1b 
0322+  3A10 50 4C 20 5E 				.db			"PL ^1", $00
0322+  3A14 31 00 
0323+  3A16             
0324+  3A16             ENG1C:
0325+  3A16             L3a16:																	; 1c 
0326+  3A16 50 4C 20 5E 				.db			"PL ^2", $00
0326+  3A1A 32 00 
0327+  3A1C             
0328+  3A1C             
0329+  3A1C             				;; Spanish text
0330+  3A1C             SPA00:
0331+  3A1C             L3a1c:
0332+  3A1C 32 20 4A 55 				.db			"2 JUGADO"
0332+  3A20 47 41 44 4F 
0333+  3A24 52 45 53 20 				.db			"RES UNA "
0333+  3A28 55 4E 41 20 
0334+  3A2C 4D 4F 4E 45 				.db			"MONEDA", $00
0334+  3A30 44 41 00 
0335+  3A33             
0336+  3A33             SPA01:
0337+  3A33             L3a33:
0338+  3A33 31 20 4A 55 				.db			"1 JUGADO"
0338+  3A37 47 41 44 4F 
0339+  3A3B 52 20 20 20 				.db			"R   UNA "
0339+  3A3F 55 4E 41 20 
0340+  3A43 4D 4F 4E 45 				.db			"MONEDA", $00
0340+  3A47 44 41 00 
0341+  3A4A             
0342+  3A4A             SPA02:
0343+  3A4A             L3a4a:
0344+  3A4A 32 20 4A 55 				.db			"2 JUGADO"
0344+  3A4E 47 41 44 4F 
0345+  3A52 52 45 53 20 				.db			"RES DOS "
0345+  3A56 44 4F 53 20 
0346+  3A5A 4D 4F 4E 45 				.db			"MONEDAS", $00
0346+  3A5E 44 41 53 00 
0347+  3A62             
0348+  3A62             SPA03:
0349+  3A62             L3a62:
0350+  3A62 31 20 4A 55 				.db			"1 JUGADO"
0350+  3A66 47 41 44 4F 
0351+  3A6A 52 20 20 20 				.db			"R   2 MO"
0351+  3A6E 32 20 4D 4F 
0352+  3A72 4E 45 44 41 				.db			"NEDAS", $00
0352+  3A76 53 00 
0353+  3A78             
0354+  3A78             SPA04:
0355+  3A78             L3a78:
0356+  3A78 32 20 4A 55 				.db			"2 JUGADO"
0356+  3A7C 47 41 44 4F 
0357+  3A80 52 45 53 20 				.db			"RES 4 MO"
0357+  3A84 34 20 4D 4F 
0358+  3A88 4E 45 44 41 				.db			"NEDAS", $00
0358+  3A8C 53 00 
0359+  3A8E             
0360+  3A8E             SPA05:
0361+  3A8E             L3a8e:
0362+  3A8E 44 45 50 4F 				.db			"DEPOSITE"
0362+  3A92 53 49 54 45 
0363+  3A96 20 4D 4F 4E 				.db			" MONEDA", $00
0363+  3A9A 45 44 41 00 
0364+  3A9E             
0365+  3A9E             SPA06:
0366+  3A9E             L3a9e:
0367+  3A9E 4F 20 50 52 				.db			"O PRESIO"
0367+  3AA2 45 53 49 4F 
0368+  3AA6 4E 45 20 42 				.db			"NE BOTON"
0368+  3AAA 4F 54 4F 4E 
0369+  3AAE 00          				.db			"", $00
0370+  3AAF             
0371+  3AAF             SPA07:
0372+  3AAF             L3aaf:
0373+  3AAF 4F 20 20 20 				.db			"O       "
0373+  3AB3 20 20 20 20 
0374+  3AB7 20 20 20 20 				.db			"        "
0374+  3ABB 20 20 20 20 
0375+  3ABF 00          				.db			"", $00
0376+  3AC0             
0377+  3AC0             SPA08:
0378+  3AC0             L3ac0:
0379+  3AC0 50 52 45 4D 				.db			"PREMIO", $00
0379+  3AC4 49 4F 00 
0380+  3AC7             
0381+  3AC7             SPA09:
0382+  3AC7             L3ac7:
0383+  3AC7 43 52 45 44 				.db			"CREDITOS"
0383+  3ACB 49 54 4F 53 
0384+  3ACF 00          				.db			"", $00
0385+  3AD0             
0386+  3AD0             SPA0A:
0387+  3AD0             L3ad0:
0388+  3AD0 44 45 52 45 				.db			"DERECHOS"
0388+  3AD4 43 48 4F 53 
0389+  3AD8 20 52 45 53 				.db			" RESERVA"
0389+  3ADC 45 52 56 41 
0390+  3AE0 44 4F 53 20 				.db			"DOS EXID"
0390+  3AE4 45 58 49 44 
0391+  3AE8 59 31 39 38 				.db			"Y1980", $00
0391+  3AEC 30 00 
0392+  3AEE             
0393+  3AEE             SPA0B:
0394+  3AEE             FRA0B:
0395+  3AEE             L3aee:
0396+  3AEE 53 50 45 43 				.db			"SPECTAR", $00
0396+  3AF2 54 41 52 00 
0397+  3AF6             
0398+  3AF6             SPA0C:
0399+  3AF6             L3af6:
0400+  3AF6 41 4C 49 53 				.db			"ALISTESE"
0400+  3AFA 54 45 53 45 
0401+  3AFE 00          				.db			"", $00
0402+  3AFF             
0403+  3AFF             SPA0D:
0404+  3AFF             L3aff:
0405+  3AFF 4A 55 47 41 				.db			"JUGADOR", $00
0405+  3B03 44 4F 52 00 
0406+  3B07             
0407+  3B07             SPA0E:
0408+  3B07             L3b07:
0409+  3B07 01 20 31 30 				.db			$01, " 10 PUN"
0409+  3B0B 20 50 55 4E 
0410+  3B0F 54 4F 53 00 				.db			"TOS", $00
0411+  3B13             
0412+  3B13             SPA0F:
0413+  3B13             L3b13:
0414+  3B13 46 49 4E 00 				.db			"FIN", $00
0415+  3B17             
0416+  3B17             SPA10:
0417+  3B17             L3b17:
0418+  3B17 53 4F 42 52 				.db			"SOBREPAS"
0418+  3B1B 45 50 41 53 
0419+  3B1F 45 20 50 55 				.db			"E PUNTAJ"
0419+  3B23 4E 54 41 4A 
0420+  3B27 45 20 20 4D 				.db			"E  MAYOR"
0420+  3B2B 41 59 4F 52 
0421+  3B2F 20 50 41 52 				.db			" PARA   "
0421+  3B33 41 20 20 20 
0422+  3B37 20 20 20 20 				.db			"     UN "
0422+  3B3B 20 55 4E 20 
0423+  3B3F 4A 55 45 47 				.db			"JUEGO AD"
0423+  3B43 4F 20 41 44 
0424+  3B47 49 43 49 4F 				.db			"ICIONAL", $00
0424+  3B4B 4E 41 4C 00 
0425+  3B4F             
0426+  3B4F             SPA11:
0427+  3B4F             L3b4f:
0428+  3B4F 50 55 4E 54 				.db			"PUNTAJE "
0428+  3B53 41 4A 45 20 
0429+  3B57 41 44 49 43 				.db			"ADICIONA"
0429+  3B5B 49 4F 4E 41 
0430+  3B5F 4C 00       				.db			"L", $00
0431+  3B61             
0432+  3B61             SPA12:
0433+  3B61             L3b61:
0434+  3B61 4A 55 45 47 				.db			"JUEGO CO"
0434+  3B65 4F 20 43 4F 
0435+  3B69 4E 54 49 4E 				.db			"NTINUADO"
0435+  3B6D 55 41 44 4F 
0436+  3B71 20 20 4A 55 				.db			"  JUGADO"
0436+  3B75 47 41 44 4F 
0437+  3B79 52 20 00    				.db			"R ", $00
0438+  3B7C             
0439+  3B7C             SPA13:
0440+  3B7C             L3b7c:
0441+  3B7C 50 4F 52 20 				.db			"POR SOBR"
0441+  3B80 53 4F 42 52 
0442+  3B84 45 50 41 53 				.db			"EPASAR M"
0442+  3B88 41 52 20 4D 
0443+  3B8C 41 59 4F 52 				.db			"AYOR PUN"
0443+  3B90 20 50 55 4E 
0444+  3B94 54 41 4A 45 				.db			"TAJE", $00
0444+  3B98 00 
0445+  3B99             
0446+  3B99             SPA14:
0447+  3B99             SPA16:
0448+  3B99             SPA18:
0449+  3B99             L3b99:
0450+  3B99 43 52 45 44 				.db			"CREDITO "
0450+  3B9D 49 54 4F 20 
0451+  3BA1 41 44 49 43 				.db			"ADICIONA"
0451+  3BA5 49 4F 4E 41 
0452+  3BA9 4C 00       				.db			"L", $00
0453+  3BAB             
0454+  3BAB             SPA15:
0455+  3BAB             SPA17:
0456+  3BAB             SPA19:
0457+  3BAB             L3bab:
0458+  3BAB 50 4F 52 20 				.db			"POR SOBR"
0458+  3BAF 53 4F 42 52 
0459+  3BB3 45 50 41 53 				.db			"EPASAR M"
0459+  3BB7 41 52 20 4D 
0460+  3BBB 41 59 4F 52 				.db			"AYOR PUN"
0460+  3BBF 20 50 55 4E 
0461+  3BC3 54 41 4A 45 				.db			"TAJE", $00
0461+  3BC7 00 
0462+  3BC8             
0463+  3BC8             SPA1A:
0464+  3BC8             L3bc8:
0465+  3BC8 4D 41 59 4F 				.db			"MAYOR", $00
0465+  3BCC 52 00 
0466+  3BCE             
0467+  3BCE             SPA1B:
0468+  3BCE             L3bce:
0469+  3BCE 55 4E 4F 00 				.db			"UNO", $00
0470+  3BD2             
0471+  3BD2             SPA1C:
0472+  3BD2             L3bd2:
0473+  3BD2 44 4F 53 00 				.db			"DOS", $00
0474+  3BD6             
0475+  3BD6             				;; French text
0476+  3BD6             FRA00:
0477+  3BD6             L3bd6:
0478+  3BD6 32 20 4A 4F 				.db			"2 JOUEUR"
0478+  3BDA 55 45 55 52 
0479+  3BDE 20 31 20 4D 				.db			" 1 MONNA"
0479+  3BE2 4F 4E 4E 41 
0480+  3BE6 49 45 00    				.db			"IE", $00
0481+  3BE9             
0482+  3BE9             FRA01:
0483+  3BE9             L3be9:
0484+  3BE9 31 20 4A 4F 				.db			"1 JOUEUR"
0484+  3BED 55 45 55 52 
0485+  3BF1 20 20 31 20 				.db			"  1 MONN"
0485+  3BF5 4D 4F 4E 4E 
0486+  3BF9 41 49 45 00 				.db			"AIE", $00
0487+  3BFD             
0488+  3BFD             FRA02:
0489+  3BFD             L3bfd:
0490+  3BFD 32 20 4A 4F 				.db			"2 JOUEUR"
0490+  3C01 55 45 55 52 
0491+  3C05 53 20 32 20 				.db			"S 2 MONN"
0491+  3C09 4D 4F 4E 4E 
0492+  3C0D 41 49 45 53 				.db			"AIES", $00
0492+  3C11 00 
0493+  3C12             
0494+  3C12             FRA03:
0495+  3C12             L3c12:
0496+  3C12 31 20 4A 4F 				.db			"1 JOUEUR"
0496+  3C16 55 45 55 52 
0497+  3C1A 20 20 32 20 				.db			"  2 MONN"
0497+  3C1E 4D 4F 4E 4E 
0498+  3C22 41 49 45 53 				.db			"AIES", $00
0498+  3C26 00 
0499+  3C27             
0500+  3C27             FRA04:
0501+  3C27             L3c27:
0502+  3C27 32 20 4A 4F 				.db			"2 JOUEUR"
0502+  3C2B 55 45 55 52 
0503+  3C2F 53 20 32 20 				.db			"S 2 MONN"
0503+  3C33 4D 4F 4E 4E 
0504+  3C37 41 49 45 53 				.db			"AIES", $00
0504+  3C3B 00 
0505+  3C3C             
0506+  3C3C             FRA05:
0507+  3C3C             L3c3c:
0508+  3C3C 44 45 50 4F 				.db			"DEPOSEZ "
0508+  3C40 53 45 5A 20 
0509+  3C44 4D 4F 4E 4E 				.db			"MONNAIE", $00
0509+  3C48 41 49 45 00 
0510+  3C4C             
0511+  3C4C             FRA06:
0512+  3C4C             L3c4c:
0513+  3C4C 4F 55 20 41 				.db			"OU APPUY"
0513+  3C50 50 50 55 59 
0514+  3C54 45 5A 20 4C 				.db			"EZ LE BO"
0514+  3C58 45 20 42 4F 
0515+  3C5C 55 54 4F 4E 				.db			"UTON", $00
0515+  3C60 00 
0516+  3C61             
0517+  3C61             FRA07:
0518+  3C61             L3c61:
0519+  3C61 4F 55 20 20 				.db			"OU      "
0519+  3C65 20 20 20 20 
0520+  3C69 20 20 20 20 				.db			"        "
0520+  3C6D 20 20 20 20 
0521+  3C71 20 20 20 20 				.db			"    ", $00
0521+  3C75 00 
0522+  3C76             
0523+  3C76             FRA08:
0524+  3C76             L3c76:
0525+  3C76 50 52 49 4D 				.db			"PRIME", $00
0525+  3C7A 45 00 
0526+  3C7C             
0527+  3C7C             FRA09:
0528+  3C7C             L3c7c:
0529+  3C7C 43 52 45 44 				.db			"CREDITS", $00
0529+  3C80 49 54 53 00 
0530+  3C84             
0531+  3C84             FRA0A:
0532+  3C84             L3c84:
0533+  3C84 44 52 4F 49 				.db			"DROIT RE"
0533+  3C88 54 20 52 45 
0534+  3C8C 50 52 4F 44 				.db			"PRODUCTI"
0534+  3C90 55 43 54 49 
0535+  3C94 4F 4E 20 45 				.db			"ON EXIDY"
0535+  3C98 58 49 44 59 
0536+  3C9C 31 39 38 30 				.db			"1980", $00
0536+  3CA0 00 
0537+  3CA1             
0538+  3CA1             FRA0BX:
0539+  3CA1             L3ca1:
0540+  3CA1 53 50 45 43 				.db			"SPECTAR", $00
0540+  3CA5 54 41 52 00 
0541+  3CA9             
0542+  3CA9             FRA0C:
0543+  3CA9             L3ca9:
0544+  3CA9 41 50 50 52 				.db			"APPRETEZ"
0544+  3CAD 45 54 45 5A 
0545+  3CB1 20 56 4F 55 				.db			" VOUS", $00
0545+  3CB5 53 00 
0546+  3CB7             
0547+  3CB7             FRA0D:
0548+  3CB7             L3cb7:
0549+  3CB7 4A 4F 55 45 				.db			"JOUEUR", $00
0549+  3CBB 55 52 00 
0550+  3CBE             
0551+  3CBE             FRA0E:
0552+  3CBE             L3cbe:
0553+  3CBE 01 20 31 30 				.db			$01, " 10 POI"
0553+  3CC2 20 50 4F 49 
0554+  3CC6 4E 54 53 00 				.db			"NTS", $00
0555+  3CCA             
0556+  3CCA             FRA0F:
0557+  3CCA             L3cca:
0558+  3CCA 46 49 4E 20 				.db			"FIN DU J"
0558+  3CCE 44 55 20 4A 
0559+  3CD2 45 55 00    				.db			"EU", $00
0560+  3CD5             
0561+  3CD5             FRA10:
0562+  3CD5             L3cd5:
0563+  3CD5 44 45 50 41 				.db			"DEPASSAN"
0563+  3CD9 53 53 41 4E 
0564+  3CDD 54 20 4C 45 				.db			"T LE NOM"
0564+  3CE1 20 4E 4F 4D 
0565+  3CE5 42 52 45 20 				.db			"BRE MAXI"
0565+  3CE9 4D 41 58 49 
0566+  3CED 4D 55 4D 20 				.db			"MUM     "
0566+  3CF1 20 20 20 20 
0567+  3CF5 50 4F 55 52 				.db			"POUR LE "
0567+  3CF9 20 4C 45 20 
0568+  3CFD 54 4F 55 52 				.db			"TOUR SUP"
0568+  3D01 20 53 55 50 
0569+  3D05 50 4C 4D 45 				.db			"PLMENTAI"
0569+  3D09 4E 54 41 49 
0570+  3D0D 52 45 00    				.db			"RE", $00
0571+  3D10             
0572+  3D10             FRA11:
0573+  3D10             L3d10:
0574+  3D10 50 4F 49 4E 				.db			"POINTS S"
0574+  3D14 54 53 20 53 
0575+  3D18 55 50 50 4C 				.db			"UPPLEMNT"
0575+  3D1C 45 4D 4E 54 
0576+  3D20 41 49 52 45 				.db			"AIRES", $00
0576+  3D24 53 00 
0577+  3D26             
0578+  3D26             FRA12:
0579+  3D26             L3d26:
0580+  3D26 54 4F 55 52 				.db			"TOUR PRO"
0580+  3D2A 20 50 52 4F 
0581+  3D2E 4C 4F 47 4E 				.db			"LOGNE PO"
0581+  3D32 45 20 50 4F 
0582+  3D36 55 52 20 4A 				.db			"UR JOUEU"
0582+  3D3A 4F 55 45 55 
0583+  3D3E 52 20 20 20 				.db			"R   ", $00
0583+  3D42 00 
0584+  3D43             
0585+  3D43             FRA13:
0586+  3D43             L3d43:
0587+  3D43 44 45 50 41 				.db			"DEPASSAN"
0587+  3D47 53 53 41 4E 
0588+  3D4B 54 20 4C 45 				.db			"T LE NOM"
0588+  3D4F 20 4E 4F 4D 
0589+  3D53 42 52 45 20 				.db			"BRE MAXI"
0589+  3D57 4D 41 58 49 
0590+  3D5B 4D 55 4D 00 				.db			"MUM", $00
0591+  3D5F             
0592+  3D5F             FRA14:
0593+  3D5F             FRA16:
0594+  3D5F             FRA18:
0595+  3D5F             L3d5f:
0596+  3D5F 50 4F 49 4E 				.db			"POINTS S"
0596+  3D63 54 53 20 53 
0597+  3D67 55 50 50 4C 				.db			"UPPLEMEN"
0597+  3D6B 45 4D 45 4E 
0598+  3D6F 54 41 49 52 				.db			"TAIRES"
0598+  3D73 45 53 
0599+  3D75             
0600+  3D75             FRA15:
0601+  3D75             FRA17:
0602+  3D75             FRA19:
0603+  3D75             L3D75:
0604+  3D75 44 45 50 41 				.db			"DEPASSAN"
0604+  3D79 53 53 41 4E 
0605+  3D7D 54 20 4C 45 				.db			"T LE NOM"
0605+  3D81 20 4E 4F 4D 
0606+  3D85 42 52 45 20 				.db			"BRE MAXI"
0606+  3D89 4D 41 58 49 
0607+  3D8D 4D 55 4D 00 				.db			"MUM", $00
0608+  3D91             
0609+  3D91             FRA1A:
0610+  3D91             L3d91:
0611+  3D91 4D 41 58 49 				.db			"MAXIMUM", $00
0611+  3D95 4D 55 4D 00 
0612+  3D99             
0613+  3D99             FRA1B:
0614+  3D99             L3d99:
0615+  3D99 4A 52 20 5E 				.db			"JR ^1", $00
0615+  3D9D 31 00 
0616+  3D9F             
0617+  3D9F             FRA1C:
0618+  3D9F             L3d9f:
0619+  3D9F 4A 52 20 5E 				.db			"JR ^2", $00
0619+  3DA3 32 00 
0620+  3DA5             
0621+  3DA5             				.end
5150   3DA5             .include "specttbl.asm"
0001+  3DA5             				;; English text
0002+  3DA5             L3da5:
0003+  3DA5 69 41 3A 38 				.dw			$4169, ENG00						; 00
0004+  3DA9 69 41 4C 38 				.dw			$4169, ENG01						; 01
0005+  3DAD 89 41 5E 38 				.dw			$4189, ENG02						; 02
0006+  3DB1 69 41 70 38 				.dw			$4169, ENG03						; 03
0007+  3DB5 89 41 82 38 				.dw			$4189, ENG04						; 04
0008+  3DB9 EB 41 94 38 				.dw			$41eb, ENG05						; 05
0009+  3DBD 0A 42 A1 38 				.dw			$420a, ENG06						; 06
0010+  3DC1 0A 42 B0 38 				.dw			$420a, ENG07						; 07
0011+  3DC5 0F 42 BF 38 				.dw			$420f, ENG08						; 08
0012+  3DC9 0C 40 C5 38 				.dw			$400c, ENG09						; 09
0013+  3DCD 42 43 CD 38 				.dw			$4342, ENG0A						; 0a
0014+  3DD1 EE 42 EB 38 				.dw			$42ee, ENG0B						; 0b
0015+  3DD5 0D 42 F3 38 				.dw			$420d, ENG0C						; 0c
0016+  3DD9 4D 42 FD 38 				.dw			$424d, ENG0D						; 0d
0017+  3DDD 6C 42 07 39 				.dw			$426c, ENG0E						; 0e
0018+  3DE1 0B 42 13 39 				.dw			$420b, ENG0F						; 0f
0019+  3DE5 C2 40 1F 39 				.dw			$40c2, ENG10						; 10
0020+  3DE9 4C 41 3D 39 				.dw			$414c, ENG11						; 11
0021+  3DED 04 42 4A 39 				.dw			$4204, ENG12						; 12
0022+  3DF1 48 42 66 39 				.dw			$4248, ENG13						; 13
0023+  3DF5 0B 42 7A 39 				.dw			$420b, ENG14						; 14
0024+  3DF9 45 42 88 39 				.dw			$4245, ENG15						; 15
0025+  3DFD 64 41 9F 39 				.dw			$4164, ENG16						; 16
0026+  3E01 84 41 BA 39 				.dw			$4184, ENG17						; 17
0027+  3E05 64 41 D4 39 				.dw			$4164, ENG18						; 18
0028+  3E09 84 41 EF 39 				.dw			$4184, ENG19						; 19
0029+  3E0D 2B 40 09 3A 				.dw			$402b, ENG1A						; 1a
0030+  3E11 02 40 10 3A 				.dw			$4002, ENG1B						; 1b
0031+  3E15 1A 40 16 3A 				.dw			$401a, ENG1C						; 1c
0032+  3E19             
0033+  3E19             				;; Spanish text
0034+  3E19             L3e19:
0035+  3E19 66 41 1C 3A 				.dw			$4166, SPA00
0036+  3E1D 66 41 33 3A 				.dw			$4166, SPA01
0037+  3E21 86 41 4A 3A 				.dw			$4186, SPA02
0038+  3E25 66 41 62 3A 				.dw			$4166, SPA03
0039+  3E29 89 41 78 3A 				.dw			$4189, SPA04
0040+  3E2D EA 41 8E 3A 				.dw			$41ea, SPA05
0041+  3E31 0A 42 9E 3A 				.dw			$420a, SPA06
0042+  3E35 0A 42 AF 3A 				.dw			$420a, SPA07
0043+  3E39 0F 42 C0 3A 				.dw			$420f, SPA08
0044+  3E3D 0B 40 C7 3A 				.dw			$400b, SPA09
0045+  3E41 42 43 D0 3A 				.dw			$4342, SPA0A
0046+  3E45 EE 42 EE 3A 				.dw			$42ee, SPA0B
0047+  3E49 0D 42 F6 3A 				.dw			$420d, SPA0C
0048+  3E4D 4D 42 FF 3A 				.dw			$424d, SPA0D
0049+  3E51 6C 42 07 3B 				.dw			$426c, SPA0E
0050+  3E55 10 42 13 3B 				.dw			$4210, SPA0F
0051+  3E59 C2 40 17 3B 				.dw			$40c2, SPA10
0052+  3E5D 49 41 4F 3B 				.dw			$4149, SPA11
0053+  3E61 03 42 61 3B 				.dw			$4203, SPA12
0054+  3E65 42 42 7C 3B 				.dw			$4242, SPA13
0055+  3E69 09 42 99 3B 				.dw			$4209, SPA14
0056+  3E6D 42 42 AB 3B 				.dw			$4242, SPA15
0057+  3E71 09 42 99 3B 				.dw			$4209, SPA16
0058+  3E75 42 42 AB 3B 				.dw			$4242, SPA17
0059+  3E79 09 42 99 3B 				.dw			$4209, SPA18
0060+  3E7D 42 42 AB 3B 				.dw			$4242, SPA19
0061+  3E81 2B 40 C8 3B 				.dw			$402b, SPA1A
0062+  3E85 02 40 CE 3B 				.dw			$4002, SPA1B
0063+  3E89 1A 40 D2 3B 				.dw			$401a, SPA1C
0064+  3E8D             
0065+  3E8D             				;; French text
0066+  3E8D             L3e8d:
0067+  3E8D 69 41 D6 3B 				.dw			$4169, FRA00
0068+  3E91 69 41 E9 3B 				.dw			$4169, FRA01
0069+  3E95 89 41 FD 3B 				.dw			$4189, FRA02
0070+  3E99 69 41 12 3C 				.dw			$4169, FRA03
0071+  3E9D 89 41 27 3C 				.dw			$4189, FRA04
0072+  3EA1 EA 41 3C 3C 				.dw			$41ea, FRA05
0073+  3EA5 0A 42 4C 3C 				.dw			$420a, FRA06
0074+  3EA9 0A 42 61 3C 				.dw			$420a, FRA07
0075+  3EAD 0F 42 76 3C 				.dw			$420f, FRA08
0076+  3EB1 0B 40 7C 3C 				.dw			$400b, FRA09
0077+  3EB5 42 43 84 3C 				.dw			$4342, FRA0A
0078+  3EB9 EE 42 EE 3A 				.dw			$42ee, FRA0B
0079+  3EBD 0B 42 A9 3C 				.dw			$420b, FRA0C
0080+  3EC1 4D 42 B7 3C 				.dw			$424d, FRA0D
0081+  3EC5 6C 42 BE 3C 				.dw			$426c, FRA0E
0082+  3EC9 0C 42 CA 3C 				.dw			$420c, FRA0F
0083+  3ECD C3 40 D5 3C 				.dw			$40c3, FRA10
0084+  3ED1 47 41 10 3D 				.dw			$4147, FRA11
0085+  3ED5 03 42 26 3D 				.dw			$4203, FRA12
0086+  3ED9 43 42 43 3D 				.dw			$4243, FRA13
0087+  3EDD 0B 42 5F 3D 				.dw			$420b, FRA14
0088+  3EE1 45 42 75 3D 				.dw			$4245, FRA15
0089+  3EE5 09 42 5F 3D 				.dw			$4209, FRA16
0090+  3EE9 42 42 75 3D 				.dw			$4242, FRA17
0091+  3EED 09 42 5F 3D 				.dw			$4209, FRA18
0092+  3EF1 42 42 75 3D 				.dw			$4242, FRA19
0093+  3EF5 2B 40 91 3D 				.dw			$402b, FRA1A
0094+  3EF9 02 40 99 3D 				.dw			$4002, FRA1B
0095+  3EFD 1A 40 9F 3D 				.dw			$401a, FRA1C
0096+  3F01             
0097+  3F01             LLANGTBL:
0098+  3F01             L3f01:
0099+  3F01 A5 3D       				.dw			L3da5										; English
0100+  3F03 8D 3E       				.dw			L3e8d										; French
0101+  3F05 09 3F       				.dw			L3f09										; German
0102+  3F07 19 3E       				.dw			L3e19										; Spanish
0103+  3F09             
0104+  3F09             				;; German text
0105+  3F09             L3f09:
0106+  3F09 66 41 2C 36 				.dw			$4166, GER00
0107+  3F0D 66 41 42 36 				.dw			$4166, GER01
0108+  3F11 86 41 58 36 				.dw			$4186, GER02
0109+  3F15 66 41 6F 36 				.dw			$4166, GER03
0110+  3F19 86 41 86 36 				.dw			$4186, GER04
0111+  3F1D E7 41 9D 36 				.dw			$41e7, GER05
0112+  3F21 07 42 B2 36 				.dw			$4207, GER06
0113+  3F25 07 42 C7 36 				.dw			$4207, GER07
0114+  3F29 0E 42 DC 36 				.dw			$420e, GER08
0115+  3F2D 0D 40 E4 36 				.dw			$400d, GER09
0116+  3F31 42 43 EB 36 				.dw			$4342, GER0A
0117+  3F35 EE 42 09 37 				.dw			$42ee, GER0B
0118+  3F39 0D 42 11 37 				.dw			$420d, GER0C
0119+  3F3D 4D 42 19 37 				.dw			$424d, GER0D
0120+  3F41 6C 42 23 37 				.dw			$426c, GER0E
0121+  3F45 0C 42 2F 37 				.dw			$420c, GER0F
0122+  3F49 C2 40 39 37 				.dw			$40c2, GER10
0123+  3F4D 4C 41 72 37 				.dw			$414c, GER11
0124+  3F51 04 42 7F 37 				.dw			$4204, GER12
0125+  3F55 42 42 97 37 				.dw			$4242, GER13
0126+  3F59 0B 42 B5 37 				.dw			$420b, GER14
0127+  3F5D 41 42 C3 37 				.dw			$4241, GER15
0128+  3F61 64 41 E4 37 				.dw			$4164, GER16
0129+  3F65 84 41 F6 37 				.dw			$4184, GER17
0130+  3F69 64 41 08 38 				.dw			$4164, GER18
0131+  3F6D 84 41 19 38 				.dw			$4184, GER19
0132+  3F71 2D 40 2B 38 				.dw			$402d, GER1A
0133+  3F75 02 40 30 38 				.dw			$4002, GER1B
0134+  3F79 1A 40 35 38 				.dw			$401a, GER1C
0135+  3F7D             
0136+  3F7D             				.end
5151   3F7D             
5152   3F7D             				;; Score locations
5153   3F7D             L3f7d:
5154   3F7D 22 40       				.dw			$4022										; P1
5155   3F7F 3A 40       				.dw			$403a										; P2
5156   3F81 32 40       				.dw			$4032										; High
5157   3F83             
5158   3F83             				;; Score locations for flip
5159   3F83             L3f83:
5160   3F83 D8 43       				.dw			$43d8										; P1
5161   3F85 C1 43       				.dw			$43c1										; P2
5162   3F87 C9 43       				.dw			$43c9										; High
5163   3F89             
5164   3F89             				;; Pointers to map chars, per level
5165   3F89             L3f89:
5166   3F89 0E 35       				.dw			L350e										; $00 
5167   3F8B 4E 35       				.dw			L354e										; $01 
5168   3F8D 8E 35       				.dw			L358e										; $02 
5169   3F8F EE 34       				.dw			L34ee										; $03 
5170   3F91 2E 35       				.dw			L352e										; $06 
5171   3F93 AE 34       				.dw			L34ae										; $05 
5172   3F95 6E 35       				.dw			L356e										; $06
5173   3F97 CE 34       				.dw			L34ce										; $07
5174   3F99 AE 35       				.dw			L35ae										; $08 
5175   3F9B CE 35       				.dw			L35ce										; $09 
5176   3F9D 0E 35       				.dw			L350e										; $0a 
5177   3F9F 4E 35       				.dw			L354e										; $0b 
5178   3FA1 8E 35       				.dw			L358e										; $0e 
5179   3FA3 EE 34       				.dw			L34ee										; $0d 
5180   3FA5 2E 35       				.dw			L352e										; $0e 
5181   3FA7 AE 34       				.dw			L34ae										; $0f
5182   3FA9             
5183   3FA9             L3fa9:
5184   3FA9 DE 26       				.dw			L26de										; IRQ vector
5185   3FAB             
5186   3FAB             				;; Garbage?
5187   3FAB             L3fab:
5188   3FAB B2 34 E2 26 				.db			$b2, $34, $e2, $26			; DATA
5189   3FAF 42 14 38 64 				.db			$42, $14, $38, $64			; DATA
5190   3FB3 41 75 38 84 				.db			$41, $75, $38, $84			; DATA
5191   3FB7 41 47 38 64 				.db			$41, $47, $38, $64			; DATA
5192   3FBB 41 59 38 84 				.db			$41, $59, $38, $84			; DATA
5193   3FBF 41 6A 38 2D 				.db			$41, $6a, $38, $2d			; DATA
5194   3FC3 40 7C 38 02 				.db			$40, $7c, $38, $02			; DATA
5195   3FC7 00 81 38 1A 				.db			$00, $81, $38, $1a			; DATA
5196   3FCB 00 86 38 22 				.db			$00, $86, $38, $22			; DATA
5197   3FCF 40 3A 01 32 				.db			$40, $3a, $01, $32			; DATA
5198   3FD3 40 D8 03 C1 				.db			$40, $d8, $03, $c1			; DATA
5199   3FD7 43 C9 43 5F 				.db			$43, $c9, $43, $5f			; DATA
5200   3FDB 35 9F 35 DF 				.db			$35, $9f, $35, $df			; DATA
5201   3FDF 35 3F 35 7F 				.db			$35, $3f, $35, $7f			; DATA
5202   3FE3 35 FF 34 FF 				.db			$35, $ff, $34, $ff			; DATA
5203   3FE7 35 1F 35 FF 				.db			$35, $1f, $35, $ff			; DATA
5204   3FEB 35 1F 36 5F 				.db			$35, $1f, $36, $5f			; DATA
5205   3FEF 77 9F 35 DF 				.db			$77, $9f, $35, $df			; DATA
5206   3FF3 35 3F 75 7F 				.db			$35, $3f, $75, $7f			; DATA
5207   3FF7 35 FF 34    				.db			$35, $ff, $34						; DATA
5208   3FFA             
5209   3FFA             				.org		$3ffa
5210   3FFA 00 10       				.dw			LRESET					; BRK Vector
5211   3FFC 00 10       				.dw			LRESET					; Reset vector
5212   3FFE DE 26       				.dw			LIRQ						; IRQ Vector
5213   4000             
5214   4000             				.end
tasm: Number of errors = 0
